
mini.out:	file format Mach-O 64-bit x86-64

Disassembly of section __TEXT,__text:
_test_expansion:
100000cc0:	55                                           	pushq	%rbp
100000cc1:	48 89 e5                                     	movq	%rsp, %rbp
100000cc4:	48 81 ec 30 03 00 00                         	subq	$816, %rsp
100000ccb:	48 8d 05 2e 42 00 00                         	leaq	16942(%rip), %rax
100000cd2:	be 00 01 00 00                               	movl	$256, %esi
100000cd7:	48 8d 95 18 fd ff ff                         	leaq	-744(%rbp), %rdx
100000cde:	31 c9                                        	xorl	%ecx, %ecx
100000ce0:	bf f0 00 00 00                               	movl	$240, %edi
100000ce5:	41 89 f8                                     	movl	%edi, %r8d
100000ce8:	4c 8d 8d 10 fe ff ff                         	leaq	-496(%rbp), %r9
100000cef:	4c 8d 95 00 ff ff ff                         	leaq	-256(%rbp), %r10
100000cf6:	4c 8b 1d 13 43 00 00                         	movq	17171(%rip), %r11
100000cfd:	4d 8b 1b                                     	movq	(%r11), %r11
100000d00:	4c 89 5d f8                                  	movq	%r11, -8(%rbp)
100000d04:	4c 89 d7                                     	movq	%r10, %rdi
100000d07:	89 b5 14 fd ff ff                            	movl	%esi, -748(%rbp)
100000d0d:	89 ce                                        	movl	%ecx, %esi
100000d0f:	48 89 95 08 fd ff ff                         	movq	%rdx, -760(%rbp)
100000d16:	4c 89 c2                                     	movq	%r8, %rdx
100000d19:	48 89 85 00 fd ff ff                         	movq	%rax, -768(%rbp)
100000d20:	4c 89 8d f8 fc ff ff                         	movq	%r9, -776(%rbp)
100000d27:	4c 89 85 f0 fc ff ff                         	movq	%r8, -784(%rbp)
100000d2e:	89 8d ec fc ff ff                            	movl	%ecx, -788(%rbp)
100000d34:	e8 19 41 00 00                               	callq	16665
100000d39:	48 8b 85 f8 fc ff ff                         	movq	-776(%rbp), %rax
100000d40:	48 89 c7                                     	movq	%rax, %rdi
100000d43:	8b b5 ec fc ff ff                            	movl	-788(%rbp), %esi
100000d49:	48 8b 95 f0 fc ff ff                         	movq	-784(%rbp), %rdx
100000d50:	e8 fd 40 00 00                               	callq	16637
100000d55:	48 8b bd 00 fd ff ff                         	movq	-768(%rbp), %rdi
100000d5c:	8b b5 14 fd ff ff                            	movl	-748(%rbp), %esi
100000d62:	48 8b 95 08 fd ff ff                         	movq	-760(%rbp), %rdx
100000d69:	e8 72 3e 00 00                               	callq	15986
100000d6e:	48 8d 05 8b 41 00 00                         	leaq	16779(%rip), %rax
100000d75:	48 8d 95 10 fe ff ff                         	leaq	-496(%rbp), %rdx
100000d7c:	48 89 d7                                     	movq	%rdx, %rdi
100000d7f:	48 89 c6                                     	movq	%rax, %rsi
100000d82:	e8 59 09 00 00                               	callq	2393
100000d87:	48 8d 3d 82 41 00 00                         	leaq	16770(%rip), %rdi
100000d8e:	48 8d 35 85 41 00 00                         	leaq	16773(%rip), %rsi
100000d95:	ba f0 00 00 00                               	movl	$240, %edx
100000d9a:	b0 00                                        	movb	$0, %al
100000d9c:	e8 b7 40 00 00                               	callq	16567
100000da1:	b9 f0 00 00 00                               	movl	$240, %ecx
100000da6:	89 ce                                        	movl	%ecx, %esi
100000da8:	48 8d bd 10 fe ff ff                         	leaq	-496(%rbp), %rdi
100000daf:	89 85 e8 fc ff ff                            	movl	%eax, -792(%rbp)
100000db5:	e8 36 01 00 00                               	callq	310
100000dba:	48 8d 3d 4f 41 00 00                         	leaq	16719(%rip), %rdi
100000dc1:	48 8d 35 5a 41 00 00                         	leaq	16730(%rip), %rsi
100000dc8:	ba f0 00 00 00                               	movl	$240, %edx
100000dcd:	b0 00                                        	movb	$0, %al
100000dcf:	e8 84 40 00 00                               	callq	16516
100000dd4:	b9 f0 00 00 00                               	movl	$240, %ecx
100000dd9:	89 ce                                        	movl	%ecx, %esi
100000ddb:	48 8d bd 18 fd ff ff                         	leaq	-744(%rbp), %rdi
100000de2:	89 85 e4 fc ff ff                            	movl	%eax, -796(%rbp)
100000de8:	e8 03 01 00 00                               	callq	259
100000ded:	48 8d b5 18 fd ff ff                         	leaq	-744(%rbp), %rsi
100000df4:	48 8d bd 10 fe ff ff                         	leaq	-496(%rbp), %rdi
100000dfb:	b8 f0 00 00 00                               	movl	$240, %eax
100000e00:	89 c2                                        	movl	%eax, %edx
100000e02:	e8 45 40 00 00                               	callq	16453
100000e07:	3d 00 00 00 00                               	cmpl	$0, %eax
100000e0c:	0f 85 23 00 00 00                            	jne	35
100000e12:	48 8d 3d 17 41 00 00                         	leaq	16663(%rip), %rdi
100000e19:	b0 00                                        	movb	$0, %al
100000e1b:	e8 38 40 00 00                               	callq	16440
100000e20:	c7 85 0c fe ff ff 00 00 00 00                	movl	$0, -500(%rbp)
100000e2a:	89 85 e0 fc ff ff                            	movl	%eax, -800(%rbp)
100000e30:	e9 84 00 00 00                               	jmp	132
100000e35:	48 8d 3d d4 40 00 00                         	leaq	16596(%rip), %rdi
100000e3c:	48 8d 35 d7 40 00 00                         	leaq	16599(%rip), %rsi
100000e43:	ba f0 00 00 00                               	movl	$240, %edx
100000e48:	b0 00                                        	movb	$0, %al
100000e4a:	e8 09 40 00 00                               	callq	16393
100000e4f:	ba f0 00 00 00                               	movl	$240, %edx
100000e54:	89 d6                                        	movl	%edx, %esi
100000e56:	48 8d bd 10 fe ff ff                         	leaq	-496(%rbp), %rdi
100000e5d:	89 85 dc fc ff ff                            	movl	%eax, -804(%rbp)
100000e63:	e8 88 00 00 00                               	callq	136
100000e68:	48 8d 3d a1 40 00 00                         	leaq	16545(%rip), %rdi
100000e6f:	48 8d 35 ac 40 00 00                         	leaq	16556(%rip), %rsi
100000e76:	ba f0 00 00 00                               	movl	$240, %edx
100000e7b:	b0 00                                        	movb	$0, %al
100000e7d:	e8 d6 3f 00 00                               	callq	16342
100000e82:	ba f0 00 00 00                               	movl	$240, %edx
100000e87:	89 d6                                        	movl	%edx, %esi
100000e89:	48 8d bd 18 fd ff ff                         	leaq	-744(%rbp), %rdi
100000e90:	89 85 d8 fc ff ff                            	movl	%eax, -808(%rbp)
100000e96:	e8 55 00 00 00                               	callq	85
100000e9b:	48 8d 3d 96 40 00 00                         	leaq	16534(%rip), %rdi
100000ea2:	b0 00                                        	movb	$0, %al
100000ea4:	e8 af 3f 00 00                               	callq	16303
100000ea9:	c7 85 0c fe ff ff ff ff ff ff                	movl	$4294967295, -500(%rbp)
100000eb3:	89 85 d4 fc ff ff                            	movl	%eax, -812(%rbp)
100000eb9:	48 8b 05 50 41 00 00                         	movq	16720(%rip), %rax
100000ec0:	8b 8d 0c fe ff ff                            	movl	-500(%rbp), %ecx
100000ec6:	48 8b 00                                     	movq	(%rax), %rax
100000ec9:	48 3b 45 f8                                  	cmpq	-8(%rbp), %rax
100000ecd:	89 8d d0 fc ff ff                            	movl	%ecx, -816(%rbp)
100000ed3:	0f 85 0f 00 00 00                            	jne	15
100000ed9:	8b 85 d0 fc ff ff                            	movl	-816(%rbp), %eax
100000edf:	48 81 c4 30 03 00 00                         	addq	$816, %rsp
100000ee6:	5d                                           	popq	%rbp
100000ee7:	c3                                           	retq
100000ee8:	e8 53 3f 00 00                               	callq	16211
100000eed:	0f 1f 00                                     	nopl	(%rax)

__printbuf:
100000ef0:	55                                           	pushq	%rbp
100000ef1:	48 89 e5                                     	movq	%rsp, %rbp
100000ef4:	48 83 ec 30                                  	subq	$48, %rsp
100000ef8:	48 89 7d f8                                  	movq	%rdi, -8(%rbp)
100000efc:	48 89 75 f0                                  	movq	%rsi, -16(%rbp)
100000f00:	48 8b 75 f8                                  	movq	-8(%rbp), %rsi
100000f04:	48 89 75 e8                                  	movq	%rsi, -24(%rbp)
100000f08:	48 c7 45 e0 00 00 00 00                      	movq	$0, -32(%rbp)
100000f10:	48 8b 45 e0                                  	movq	-32(%rbp), %rax
100000f14:	48 3b 45 f0                                  	cmpq	-16(%rbp), %rax
100000f18:	0f 83 9e 00 00 00                            	jae	158
100000f1e:	48 8b 45 e0                                  	movq	-32(%rbp), %rax
100000f22:	48 25 0f 00 00 00                            	andq	$15, %rax
100000f28:	48 3d 00 00 00 00                            	cmpq	$0, %rax
100000f2e:	0f 85 1f 00 00 00                            	jne	31
100000f34:	48 81 7d e0 00 00 00 00                      	cmpq	$0, -32(%rbp)
100000f3c:	0f 84 11 00 00 00                            	je	17
100000f42:	48 8d 3d 11 40 00 00                         	leaq	16401(%rip), %rdi
100000f49:	b0 00                                        	movb	$0, %al
100000f4b:	e8 08 3f 00 00                               	callq	16136
100000f50:	89 45 dc                                     	movl	%eax, -36(%rbp)
100000f53:	48 8b 45 e0                                  	movq	-32(%rbp), %rax
100000f57:	48 25 1f 00 00 00                            	andq	$31, %rax
100000f5d:	48 c1 e0 02                                  	shlq	$2, %rax
100000f61:	48 3d 00 00 00 00                            	cmpq	$0, %rax
100000f67:	0f 85 1f 00 00 00                            	jne	31
100000f6d:	48 81 7d e0 00 00 00 00                      	cmpq	$0, -32(%rbp)
100000f75:	0f 84 11 00 00 00                            	je	17
100000f7b:	48 8d 3d da 3f 00 00                         	leaq	16346(%rip), %rdi
100000f82:	b0 00                                        	movb	$0, %al
100000f84:	e8 cf 3e 00 00                               	callq	16079
100000f89:	89 45 d8                                     	movl	%eax, -40(%rbp)
100000f8c:	48 8d 3d cb 3f 00 00                         	leaq	16331(%rip), %rdi
100000f93:	48 8b 45 e0                                  	movq	-32(%rbp), %rax
100000f97:	48 8b 4d e8                                  	movq	-24(%rbp), %rcx
100000f9b:	0f b6 34 01                                  	movzbl	(%rcx,%rax), %esi
100000f9f:	b0 00                                        	movb	$0, %al
100000fa1:	e8 b2 3e 00 00                               	callq	16050
100000fa6:	89 45 d4                                     	movl	%eax, -44(%rbp)
100000fa9:	48 8b 45 e0                                  	movq	-32(%rbp), %rax
100000fad:	48 05 01 00 00 00                            	addq	$1, %rax
100000fb3:	48 89 45 e0                                  	movq	%rax, -32(%rbp)
100000fb7:	e9 54 ff ff ff                               	jmp	-172
100000fbc:	48 8d 3d 99 3f 00 00                         	leaq	16281(%rip), %rdi
100000fc3:	b0 00                                        	movb	$0, %al
100000fc5:	e8 8e 3e 00 00                               	callq	16014
100000fca:	89 45 d0                                     	movl	%eax, -48(%rbp)
100000fcd:	48 83 c4 30                                  	addq	$48, %rsp
100000fd1:	5d                                           	popq	%rbp
100000fd2:	c3                                           	retq
100000fd3:	66 66 66 66 2e 0f 1f 84 00 00 00 00 00       	nopw	%cs:(%rax,%rax)

_time_expansion:
100000fe0:	55                                           	pushq	%rbp
100000fe1:	48 89 e5                                     	movq	%rsp, %rbp
100000fe4:	48 81 ec 80 03 00 00                         	subq	$896, %rsp
100000feb:	31 c0                                        	xorl	%eax, %eax
100000fed:	b9 f0 00 00 00                               	movl	$240, %ecx
100000ff2:	89 ca                                        	movl	%ecx, %edx
100000ff4:	48 8d b5 10 fe ff ff                         	leaq	-496(%rbp), %rsi
100000ffb:	48 8d bd 00 ff ff ff                         	leaq	-256(%rbp), %rdi
100001002:	4c 8b 05 07 40 00 00                         	movq	16391(%rip), %r8
100001009:	4d 8b 00                                     	movq	(%r8), %r8
10000100c:	4c 89 45 f8                                  	movq	%r8, -8(%rbp)
100001010:	48 89 b5 b0 fc ff ff                         	movq	%rsi, -848(%rbp)
100001017:	89 c6                                        	movl	%eax, %esi
100001019:	48 89 95 a8 fc ff ff                         	movq	%rdx, -856(%rbp)
100001020:	89 85 a4 fc ff ff                            	movl	%eax, -860(%rbp)
100001026:	e8 27 3e 00 00                               	callq	15911
10000102b:	48 8b 95 b0 fc ff ff                         	movq	-848(%rbp), %rdx
100001032:	48 89 d7                                     	movq	%rdx, %rdi
100001035:	8b b5 a4 fc ff ff                            	movl	-860(%rbp), %esi
10000103b:	48 8b 95 a8 fc ff ff                         	movq	-856(%rbp), %rdx
100001042:	e8 0b 3e 00 00                               	callq	15883
100001047:	0f 31                                        	rdtsc
100001049:	48 c1 e2 20                                  	shlq	$32, %rdx
10000104d:	48 09 d0                                     	orq	%rdx, %rax
100001050:	48 89 85 10 fd ff ff                         	movq	%rax, -752(%rbp)
100001057:	48 c7 85 08 fd ff ff 00 00 00 00             	movq	$0, -760(%rbp)
100001062:	48 81 bd 08 fd ff ff 00 00 04 00             	cmpq	$262144, -760(%rbp)
10000106d:	0f 83 34 00 00 00                            	jae	52
100001073:	48 8d 05 86 3e 00 00                         	leaq	16006(%rip), %rax
10000107a:	be 00 01 00 00                               	movl	$256, %esi
10000107f:	48 8d 95 18 fd ff ff                         	leaq	-744(%rbp), %rdx
100001086:	48 89 c7                                     	movq	%rax, %rdi
100001089:	e8 52 3b 00 00                               	callq	15186
10000108e:	48 8b 85 08 fd ff ff                         	movq	-760(%rbp), %rax
100001095:	48 05 01 00 00 00                            	addq	$1, %rax
10000109b:	48 89 85 08 fd ff ff                         	movq	%rax, -760(%rbp)
1000010a2:	e9 bb ff ff ff                               	jmp	-69
1000010a7:	48 8d 3d 92 3e 00 00                         	leaq	16018(%rip), %rdi
1000010ae:	48 8d 35 97 3e 00 00                         	leaq	16023(%rip), %rsi
1000010b5:	f2 0f 10 05 13 3e 00 00                      	movsd	15891(%rip), %xmm0
1000010bd:	0f 31                                        	rdtsc
1000010bf:	48 c1 e2 20                                  	shlq	$32, %rdx
1000010c3:	48 09 d0                                     	orq	%rdx, %rax
1000010c6:	48 8b 95 10 fd ff ff                         	movq	-752(%rbp), %rdx
1000010cd:	48 29 d0                                     	subq	%rdx, %rax
1000010d0:	48 89 85 10 fd ff ff                         	movq	%rax, -752(%rbp)
1000010d7:	66 48 0f 6e c8                               	movd	%rax, %xmm1
1000010dc:	0f 28 15 fd 3d 00 00                         	movaps	15869(%rip), %xmm2
1000010e3:	66 0f 62 ca                                  	punpckldq	%xmm2, %xmm1
1000010e7:	66 0f 28 15 01 3e 00 00                      	movapd	15873(%rip), %xmm2
1000010ef:	66 0f 5c ca                                  	subpd	%xmm2, %xmm1
1000010f3:	66 0f 7c c9                                  	haddpd	%xmm1, %xmm1
1000010f7:	f2 0f 5e c8                                  	divsd	%xmm0, %xmm1
1000010fb:	0f 28 c1                                     	movaps	%xmm1, %xmm0
1000010fe:	b0 01                                        	movb	$1, %al
100001100:	e8 53 3d 00 00                               	callq	15699
100001105:	89 85 a0 fc ff ff                            	movl	%eax, -864(%rbp)
10000110b:	e9 00 00 00 00                               	jmp	0
100001110:	0f 31                                        	rdtsc
100001112:	48 c1 e2 20                                  	shlq	$32, %rdx
100001116:	48 09 d0                                     	orq	%rdx, %rax
100001119:	48 89 85 00 fd ff ff                         	movq	%rax, -768(%rbp)
100001120:	48 c7 85 f8 fc ff ff 00 00 00 00             	movq	$0, -776(%rbp)
10000112b:	48 81 bd f8 fc ff ff 00 00 04 00             	cmpq	$262144, -776(%rbp)
100001136:	0f 83 32 00 00 00                            	jae	50
10000113c:	48 8d 05 bd 3d 00 00                         	leaq	15805(%rip), %rax
100001143:	48 8d 8d 10 fe ff ff                         	leaq	-496(%rbp), %rcx
10000114a:	48 89 cf                                     	movq	%rcx, %rdi
10000114d:	48 89 c6                                     	movq	%rax, %rsi
100001150:	e8 8b 05 00 00                               	callq	1419
100001155:	48 8b 85 f8 fc ff ff                         	movq	-776(%rbp), %rax
10000115c:	48 05 01 00 00 00                            	addq	$1, %rax
100001162:	48 89 85 f8 fc ff ff                         	movq	%rax, -776(%rbp)
100001169:	e9 bd ff ff ff                               	jmp	-67
10000116e:	48 8d 3d cb 3d 00 00                         	leaq	15819(%rip), %rdi
100001175:	48 8d 35 d5 3d 00 00                         	leaq	15829(%rip), %rsi
10000117c:	f2 0f 10 05 4c 3d 00 00                      	movsd	15692(%rip), %xmm0
100001184:	0f 31                                        	rdtsc
100001186:	48 c1 e2 20                                  	shlq	$32, %rdx
10000118a:	48 09 d0                                     	orq	%rdx, %rax
10000118d:	48 8b 95 00 fd ff ff                         	movq	-768(%rbp), %rdx
100001194:	48 29 d0                                     	subq	%rdx, %rax
100001197:	48 89 85 00 fd ff ff                         	movq	%rax, -768(%rbp)
10000119e:	66 48 0f 6e c8                               	movd	%rax, %xmm1
1000011a3:	0f 28 15 36 3d 00 00                         	movaps	15670(%rip), %xmm2
1000011aa:	66 0f 62 ca                                  	punpckldq	%xmm2, %xmm1
1000011ae:	66 0f 28 15 3a 3d 00 00                      	movapd	15674(%rip), %xmm2
1000011b6:	66 0f 5c ca                                  	subpd	%xmm2, %xmm1
1000011ba:	66 0f 7c c9                                  	haddpd	%xmm1, %xmm1
1000011be:	f2 0f 5e c8                                  	divsd	%xmm0, %xmm1
1000011c2:	0f 28 c1                                     	movaps	%xmm1, %xmm0
1000011c5:	b0 01                                        	movb	$1, %al
1000011c7:	e8 8c 3c 00 00                               	callq	15500
1000011cc:	89 85 9c fc ff ff                            	movl	%eax, -868(%rbp)
1000011d2:	48 8d 3d 7e 3d 00 00                         	leaq	15742(%rip), %rdi
1000011d9:	b0 00                                        	movb	$0, %al
1000011db:	e8 78 3c 00 00                               	callq	15480
1000011e0:	89 85 98 fc ff ff                            	movl	%eax, -872(%rbp)
1000011e6:	0f 31                                        	rdtsc
1000011e8:	48 c1 e2 20                                  	shlq	$32, %rdx
1000011ec:	48 09 d0                                     	orq	%rdx, %rax
1000011ef:	48 89 85 f0 fc ff ff                         	movq	%rax, -784(%rbp)
1000011f6:	48 c7 85 e8 fc ff ff 00 00 00 00             	movq	$0, -792(%rbp)
100001201:	48 81 bd e8 fc ff ff 00 00 04 00             	cmpq	$262144, -792(%rbp)
10000120c:	0f 83 33 00 00 00                            	jae	51
100001212:	be 00 01 00 00                               	movl	$256, %esi
100001217:	48 8d 85 18 fd ff ff                         	leaq	-744(%rbp), %rax
10000121e:	48 89 c1                                     	movq	%rax, %rcx
100001221:	48 89 cf                                     	movq	%rcx, %rdi
100001224:	48 89 c2                                     	movq	%rax, %rdx
100001227:	e8 b4 39 00 00                               	callq	14772
10000122c:	48 8b 85 e8 fc ff ff                         	movq	-792(%rbp), %rax
100001233:	48 05 01 00 00 00                            	addq	$1, %rax
100001239:	48 89 85 e8 fc ff ff                         	movq	%rax, -792(%rbp)
100001240:	e9 bc ff ff ff                               	jmp	-68
100001245:	48 8d 3d f4 3c 00 00                         	leaq	15604(%rip), %rdi
10000124c:	48 8d 35 f9 3c 00 00                         	leaq	15609(%rip), %rsi
100001253:	f2 0f 10 05 75 3c 00 00                      	movsd	15477(%rip), %xmm0
10000125b:	0f 31                                        	rdtsc
10000125d:	48 c1 e2 20                                  	shlq	$32, %rdx
100001261:	48 09 d0                                     	orq	%rdx, %rax
100001264:	48 8b 95 f0 fc ff ff                         	movq	-784(%rbp), %rdx
10000126b:	48 29 d0                                     	subq	%rdx, %rax
10000126e:	48 89 85 f0 fc ff ff                         	movq	%rax, -784(%rbp)
100001275:	66 48 0f 6e c8                               	movd	%rax, %xmm1
10000127a:	0f 28 15 5f 3c 00 00                         	movaps	15455(%rip), %xmm2
100001281:	66 0f 62 ca                                  	punpckldq	%xmm2, %xmm1
100001285:	66 0f 28 15 63 3c 00 00                      	movapd	15459(%rip), %xmm2
10000128d:	66 0f 5c ca                                  	subpd	%xmm2, %xmm1
100001291:	66 0f 7c c9                                  	haddpd	%xmm1, %xmm1
100001295:	f2 0f 5e c8                                  	divsd	%xmm0, %xmm1
100001299:	0f 28 c1                                     	movaps	%xmm1, %xmm0
10000129c:	b0 01                                        	movb	$1, %al
10000129e:	e8 b5 3b 00 00                               	callq	15285
1000012a3:	89 85 94 fc ff ff                            	movl	%eax, -876(%rbp)
1000012a9:	e9 00 00 00 00                               	jmp	0
1000012ae:	0f 31                                        	rdtsc
1000012b0:	48 c1 e2 20                                  	shlq	$32, %rdx
1000012b4:	48 09 d0                                     	orq	%rdx, %rax
1000012b7:	48 89 85 e0 fc ff ff                         	movq	%rax, -800(%rbp)
1000012be:	48 c7 85 d8 fc ff ff 00 00 00 00             	movq	$0, -808(%rbp)
1000012c9:	48 81 bd d8 fc ff ff 00 00 04 00             	cmpq	$262144, -808(%rbp)
1000012d4:	0f 83 33 00 00 00                            	jae	51
1000012da:	be 00 01 00 00                               	movl	$256, %esi
1000012df:	48 8d 85 18 fd ff ff                         	leaq	-744(%rbp), %rax
1000012e6:	48 89 c1                                     	movq	%rax, %rcx
1000012e9:	48 89 cf                                     	movq	%rcx, %rdi
1000012ec:	48 89 c2                                     	movq	%rax, %rdx
1000012ef:	e8 ec 38 00 00                               	callq	14572
1000012f4:	48 8b 85 d8 fc ff ff                         	movq	-808(%rbp), %rax
1000012fb:	48 05 01 00 00 00                            	addq	$1, %rax
100001301:	48 89 85 d8 fc ff ff                         	movq	%rax, -808(%rbp)
100001308:	e9 bc ff ff ff                               	jmp	-68
10000130d:	48 8d 3d 2c 3c 00 00                         	leaq	15404(%rip), %rdi
100001314:	48 8d 35 31 3c 00 00                         	leaq	15409(%rip), %rsi
10000131b:	f2 0f 10 05 ad 3b 00 00                      	movsd	15277(%rip), %xmm0
100001323:	0f 31                                        	rdtsc
100001325:	48 c1 e2 20                                  	shlq	$32, %rdx
100001329:	48 09 d0                                     	orq	%rdx, %rax
10000132c:	48 8b 95 e0 fc ff ff                         	movq	-800(%rbp), %rdx
100001333:	48 29 d0                                     	subq	%rdx, %rax
100001336:	48 89 85 e0 fc ff ff                         	movq	%rax, -800(%rbp)
10000133d:	66 48 0f 6e c8                               	movd	%rax, %xmm1
100001342:	0f 28 15 97 3b 00 00                         	movaps	15255(%rip), %xmm2
100001349:	66 0f 62 ca                                  	punpckldq	%xmm2, %xmm1
10000134d:	66 0f 28 15 9b 3b 00 00                      	movapd	15259(%rip), %xmm2
100001355:	66 0f 5c ca                                  	subpd	%xmm2, %xmm1
100001359:	66 0f 7c c9                                  	haddpd	%xmm1, %xmm1
10000135d:	f2 0f 5e c8                                  	divsd	%xmm0, %xmm1
100001361:	0f 28 c1                                     	movaps	%xmm1, %xmm0
100001364:	b0 01                                        	movb	$1, %al
100001366:	e8 ed 3a 00 00                               	callq	15085
10000136b:	89 85 90 fc ff ff                            	movl	%eax, -880(%rbp)
100001371:	e9 00 00 00 00                               	jmp	0
100001376:	0f 31                                        	rdtsc
100001378:	48 c1 e2 20                                  	shlq	$32, %rdx
10000137c:	48 09 d0                                     	orq	%rdx, %rax
10000137f:	48 89 85 d0 fc ff ff                         	movq	%rax, -816(%rbp)
100001386:	48 c7 85 c8 fc ff ff 00 00 00 00             	movq	$0, -824(%rbp)
100001391:	48 81 bd c8 fc ff ff 00 00 04 00             	cmpq	$262144, -824(%rbp)
10000139c:	0f 83 2e 00 00 00                            	jae	46
1000013a2:	48 8d 85 10 fe ff ff                         	leaq	-496(%rbp), %rax
1000013a9:	48 89 c1                                     	movq	%rax, %rcx
1000013ac:	48 89 cf                                     	movq	%rcx, %rdi
1000013af:	48 89 c6                                     	movq	%rax, %rsi
1000013b2:	e8 29 03 00 00                               	callq	809
1000013b7:	48 8b 85 c8 fc ff ff                         	movq	-824(%rbp), %rax
1000013be:	48 05 01 00 00 00                            	addq	$1, %rax
1000013c4:	48 89 85 c8 fc ff ff                         	movq	%rax, -824(%rbp)
1000013cb:	e9 c1 ff ff ff                               	jmp	-63
1000013d0:	48 8d 3d 69 3b 00 00                         	leaq	15209(%rip), %rdi
1000013d7:	48 8d 35 73 3b 00 00                         	leaq	15219(%rip), %rsi
1000013de:	f2 0f 10 05 ea 3a 00 00                      	movsd	15082(%rip), %xmm0
1000013e6:	0f 31                                        	rdtsc
1000013e8:	48 c1 e2 20                                  	shlq	$32, %rdx
1000013ec:	48 09 d0                                     	orq	%rdx, %rax
1000013ef:	48 8b 95 d0 fc ff ff                         	movq	-816(%rbp), %rdx
1000013f6:	48 29 d0                                     	subq	%rdx, %rax
1000013f9:	48 89 85 d0 fc ff ff                         	movq	%rax, -816(%rbp)
100001400:	66 48 0f 6e c8                               	movd	%rax, %xmm1
100001405:	0f 28 15 d4 3a 00 00                         	movaps	15060(%rip), %xmm2
10000140c:	66 0f 62 ca                                  	punpckldq	%xmm2, %xmm1
100001410:	66 0f 28 15 d8 3a 00 00                      	movapd	15064(%rip), %xmm2
100001418:	66 0f 5c ca                                  	subpd	%xmm2, %xmm1
10000141c:	66 0f 7c c9                                  	haddpd	%xmm1, %xmm1
100001420:	f2 0f 5e c8                                  	divsd	%xmm0, %xmm1
100001424:	0f 28 c1                                     	movaps	%xmm1, %xmm0
100001427:	b0 01                                        	movb	$1, %al
100001429:	e8 2a 3a 00 00                               	callq	14890
10000142e:	89 85 8c fc ff ff                            	movl	%eax, -884(%rbp)
100001434:	e9 00 00 00 00                               	jmp	0
100001439:	0f 31                                        	rdtsc
10000143b:	48 c1 e2 20                                  	shlq	$32, %rdx
10000143f:	48 09 d0                                     	orq	%rdx, %rax
100001442:	48 89 85 c0 fc ff ff                         	movq	%rax, -832(%rbp)
100001449:	48 c7 85 b8 fc ff ff 00 00 00 00             	movq	$0, -840(%rbp)
100001454:	48 81 bd b8 fc ff ff 00 00 04 00             	cmpq	$262144, -840(%rbp)
10000145f:	0f 83 2e 00 00 00                            	jae	46
100001465:	48 8d 85 10 fe ff ff                         	leaq	-496(%rbp), %rax
10000146c:	48 89 c1                                     	movq	%rax, %rcx
10000146f:	48 89 cf                                     	movq	%rcx, %rdi
100001472:	48 89 c6                                     	movq	%rax, %rsi
100001475:	e8 66 02 00 00                               	callq	614
10000147a:	48 8b 85 b8 fc ff ff                         	movq	-840(%rbp), %rax
100001481:	48 05 01 00 00 00                            	addq	$1, %rax
100001487:	48 89 85 b8 fc ff ff                         	movq	%rax, -840(%rbp)
10000148e:	e9 c1 ff ff ff                               	jmp	-63
100001493:	48 8d 3d a6 3a 00 00                         	leaq	15014(%rip), %rdi
10000149a:	48 8d 35 b0 3a 00 00                         	leaq	15024(%rip), %rsi
1000014a1:	f2 0f 10 05 27 3a 00 00                      	movsd	14887(%rip), %xmm0
1000014a9:	0f 31                                        	rdtsc
1000014ab:	48 c1 e2 20                                  	shlq	$32, %rdx
1000014af:	48 09 d0                                     	orq	%rdx, %rax
1000014b2:	48 8b 95 c0 fc ff ff                         	movq	-832(%rbp), %rdx
1000014b9:	48 29 d0                                     	subq	%rdx, %rax
1000014bc:	48 89 85 c0 fc ff ff                         	movq	%rax, -832(%rbp)
1000014c3:	66 48 0f 6e c8                               	movd	%rax, %xmm1
1000014c8:	0f 28 15 11 3a 00 00                         	movaps	14865(%rip), %xmm2
1000014cf:	66 0f 62 ca                                  	punpckldq	%xmm2, %xmm1
1000014d3:	66 0f 28 15 15 3a 00 00                      	movapd	14869(%rip), %xmm2
1000014db:	66 0f 5c ca                                  	subpd	%xmm2, %xmm1
1000014df:	66 0f 7c c9                                  	haddpd	%xmm1, %xmm1
1000014e3:	f2 0f 5e c8                                  	divsd	%xmm0, %xmm1
1000014e7:	0f 28 c1                                     	movaps	%xmm1, %xmm0
1000014ea:	b0 01                                        	movb	$1, %al
1000014ec:	e8 67 39 00 00                               	callq	14695
1000014f1:	89 85 88 fc ff ff                            	movl	%eax, -888(%rbp)
1000014f7:	48 8b 05 12 3b 00 00                         	movq	15122(%rip), %rax
1000014fe:	48 8b 00                                     	movq	(%rax), %rax
100001501:	48 3b 45 f8                                  	cmpq	-8(%rbp), %rax
100001505:	0f 85 0b 00 00 00                            	jne	11
10000150b:	31 c0                                        	xorl	%eax, %eax
10000150d:	48 81 c4 80 03 00 00                         	addq	$896, %rsp
100001514:	5d                                           	popq	%rbp
100001515:	c3                                           	retq
100001516:	e8 25 39 00 00                               	callq	14629
10000151b:	0f 1f 44 00 00                               	nopl	(%rax,%rax)

_main:
100001520:	55                                           	pushq	%rbp
100001521:	48 89 e5                                     	movq	%rsp, %rbp
100001524:	48 81 ec f0 00 00 00                         	subq	$240, %rsp
10000152b:	48 8b 05 de 3a 00 00                         	movq	15070(%rip), %rax
100001532:	48 8b 00                                     	movq	(%rax), %rax
100001535:	48 89 45 f8                                  	movq	%rax, -8(%rbp)
100001539:	c7 85 1c ff ff ff 00 00 00 00                	movl	$0, -228(%rbp)
100001543:	e8 78 f7 ff ff                               	callq	-2184
100001548:	89 85 18 ff ff ff                            	movl	%eax, -232(%rbp)
10000154e:	e8 8d fa ff ff                               	callq	-1395
100001553:	48 8b 0d b6 3a 00 00                         	movq	15030(%rip), %rcx
10000155a:	48 8b 09                                     	movq	(%rcx), %rcx
10000155d:	48 3b 4d f8                                  	cmpq	-8(%rbp), %rcx
100001561:	89 85 14 ff ff ff                            	movl	%eax, -236(%rbp)
100001567:	0f 85 0b 00 00 00                            	jne	11
10000156d:	31 c0                                        	xorl	%eax, %eax
10000156f:	48 81 c4 f0 00 00 00                         	addq	$240, %rsp
100001576:	5d                                           	popq	%rbp
100001577:	c3                                           	retq
100001578:	e8 c3 38 00 00                               	callq	14531
10000157d:	90                                           	nop
10000157e:	90                                           	nop
10000157f:	90                                           	nop

_exiso:
100001580:	c5 fa 6f 0f                                  	vmovdqu	(%rdi), %xmm1
100001584:	c5 f9 ef c0                                  	vpxor	%xmm0, %xmm0, %xmm0
100001588:	c4 e2 71 dd c8                               	vaesenclast	%xmm0, %xmm1, %xmm1
10000158d:	c4 e2 71 00 0d ca 3a 00 00                   	vpshufb	15050(%rip), %xmm1, %xmm1
100001596:	c5 f1 ef 0d 42 3b 00 00                      	vpxor	15170(%rip), %xmm1, %xmm1
10000159e:	c5 fa 7f 0f                                  	vmovdqu	%xmm1, (%rdi)
1000015a2:	c3                                           	retq

_ex:
1000015a3:	c5 fa 6f 0f                                  	vmovdqu	(%rdi), %xmm1
1000015a7:	c4 e3 79 df c9 01                            	vaeskeygenassist	$1, %xmm1, %xmm1
1000015ad:	c5 fa 7f 0f                                  	vmovdqu	%xmm1, (%rdi)
1000015b1:	c3                                           	retq

_exk1:
1000015b2:	c5 fa 6f 0f                                  	vmovdqu	(%rdi), %xmm1
1000015b6:	c4 e3 79 df c9 00                            	vaeskeygenassist	$0, %xmm1, %xmm1
1000015bc:	c5 f9 70 c9 aa                               	vpshufd	$-86, %xmm1, %xmm1
1000015c1:	c5 fa 7f 0f                                  	vmovdqu	%xmm1, (%rdi)
1000015c5:	c3                                           	retq

_exiso1:
1000015c6:	c5 fa 6f 0f                                  	vmovdqu	(%rdi), %xmm1
1000015ca:	c5 f9 ef c0                                  	vpxor	%xmm0, %xmm0, %xmm0
1000015ce:	c4 e2 71 dd c8                               	vaesenclast	%xmm0, %xmm1, %xmm1
1000015d3:	c4 e2 71 00 0d e4 3a 00 00                   	vpshufb	15076(%rip), %xmm1, %xmm1
1000015dc:	c5 fa 7f 0f                                  	vmovdqu	%xmm1, (%rdi)
1000015e0:	c3                                           	retq

_exiso2:
1000015e1:	c5 fa 6f 0f                                  	vmovdqu	(%rdi), %xmm1
1000015e5:	c5 f9 ef c0                                  	vpxor	%xmm0, %xmm0, %xmm0
1000015e9:	c4 e2 71 dd c8                               	vaesenclast	%xmm0, %xmm1, %xmm1
1000015ee:	c4 e2 71 00 0d d9 3a 00 00                   	vpshufb	15065(%rip), %xmm1, %xmm1
1000015f7:	c5 f1 ef 0d f1 3a 00 00                      	vpxor	15089(%rip), %xmm1, %xmm1
1000015ff:	c5 fa 7f 0f                                  	vmovdqu	%xmm1, (%rdi)
100001603:	c3                                           	retq

_exk2:
100001604:	c5 fa 6f 0f                                  	vmovdqu	(%rdi), %xmm1
100001608:	c4 e3 79 df c9 01                            	vaeskeygenassist	$1, %xmm1, %xmm1
10000160e:	c5 f9 70 c9 ff                               	vpshufd	$-1, %xmm1, %xmm1
100001613:	c5 fa 7f 0f                                  	vmovdqu	%xmm1, (%rdi)
100001617:	c3                                           	retq

_exk1_lmix:
100001618:	e8 95 ff ff ff                               	callq	-107
10000161d:	c5 fc 77                                     	vzeroall
100001620:	c5 fa 6f 0f                                  	vmovdqu	(%rdi), %xmm1
100001624:	c4 e2 71 00 15 e3 3a 00 00                   	vpshufb	15075(%rip), %xmm1, %xmm2
10000162d:	c5 f1 ef ca                                  	vpxor	%xmm2, %xmm1, %xmm1
100001631:	c4 e2 69 00 15 d6 3a 00 00                   	vpshufb	15062(%rip), %xmm2, %xmm2
10000163a:	c5 f1 ef ca                                  	vpxor	%xmm2, %xmm1, %xmm1
10000163e:	c4 e2 69 00 15 c9 3a 00 00                   	vpshufb	15049(%rip), %xmm2, %xmm2
100001647:	c5 f1 ef ca                                  	vpxor	%xmm2, %xmm1, %xmm1
10000164b:	c5 f1 ef cb                                  	vpxor	%xmm3, %xmm1, %xmm1
10000164f:	c5 fa 7f 0f                                  	vmovdqu	%xmm1, (%rdi)
100001653:	c3                                           	retq
100001654:	66 66 66 2e 0f 1f 84 00 00 00 00 00          	nopw	%cs:(%rax,%rax)

_Rijndael_k32_expand_two:
100001660:	c5 f9 70 d2 ff                               	vpshufd	$-1, %xmm2, %xmm2
100001665:	c4 e2 51 00 25 a2 3a 00 00                   	vpshufb	15010(%rip), %xmm5, %xmm4
10000166e:	c5 d1 ef ec                                  	vpxor	%xmm4, %xmm5, %xmm5
100001672:	c4 e2 59 00 25 95 3a 00 00                   	vpshufb	14997(%rip), %xmm4, %xmm4
10000167b:	c5 d1 ef ec                                  	vpxor	%xmm4, %xmm5, %xmm5
10000167f:	c4 e2 59 00 25 88 3a 00 00                   	vpshufb	14984(%rip), %xmm4, %xmm4
100001688:	c5 d1 ef ec                                  	vpxor	%xmm4, %xmm5, %xmm5
10000168c:	c5 d1 ef ea                                  	vpxor	%xmm2, %xmm5, %xmm5
100001690:	c5 fa 7f 2f                                  	vmovdqu	%xmm5, (%rdi)
100001694:	c4 e3 79 df e5 00                            	vaeskeygenassist	$0, %xmm5, %xmm4
10000169a:	c5 f9 70 d4 aa                               	vpshufd	$-86, %xmm4, %xmm2
10000169f:	c4 e2 49 00 25 68 3a 00 00                   	vpshufb	14952(%rip), %xmm6, %xmm4
1000016a8:	c5 c9 ef f4                                  	vpxor	%xmm4, %xmm6, %xmm6
1000016ac:	c4 e2 59 00 25 5b 3a 00 00                   	vpshufb	14939(%rip), %xmm4, %xmm4
1000016b5:	c5 c9 ef f4                                  	vpxor	%xmm4, %xmm6, %xmm6
1000016b9:	c4 e2 59 00 25 4e 3a 00 00                   	vpshufb	14926(%rip), %xmm4, %xmm4
1000016c2:	c5 c9 ef f4                                  	vpxor	%xmm4, %xmm6, %xmm6
1000016c6:	c5 c9 ef f2                                  	vpxor	%xmm2, %xmm6, %xmm6
1000016ca:	c5 fa 7f 77 10                               	vmovdqu	%xmm6, 16(%rdi)
1000016cf:	48 83 c7 20                                  	addq	$32, %rdi
1000016d3:	c3                                           	retq
1000016d4:	66 66 66 2e 0f 1f 84 00 00 00 00 00          	nopw	%cs:(%rax,%rax)

_Rijndael_k32b16_expandkey:
1000016e0:	c5 f8 77                                     	vzeroupper
1000016e3:	c5 fa 6f 3d 15 3a 00 00                      	vmovdqu	14869(%rip), %xmm7
1000016eb:	c4 41 01 ef ff                               	vpxor	%xmm15, %xmm15, %xmm15
1000016f0:	c5 fa 6f 2e                                  	vmovdqu	(%rsi), %xmm5
1000016f4:	c5 fa 6f 76 10                               	vmovdqu	16(%rsi), %xmm6
1000016f9:	c5 fa 7f 2f                                  	vmovdqu	%xmm5, (%rdi)
1000016fd:	c5 fa 7f 77 10                               	vmovdqu	%xmm6, 16(%rdi)
100001702:	48 83 c7 20                                  	addq	$32, %rdi
100001706:	c4 e3 79 df d6 01                            	vaeskeygenassist	$1, %xmm6, %xmm2
10000170c:	c5 f9 70 d2 ff                               	vpshufd	$-1, %xmm2, %xmm2
100001711:	c4 e2 51 00 25 f6 39 00 00                   	vpshufb	14838(%rip), %xmm5, %xmm4
10000171a:	c5 d1 ef ec                                  	vpxor	%xmm4, %xmm5, %xmm5
10000171e:	c4 e2 59 00 25 e9 39 00 00                   	vpshufb	14825(%rip), %xmm4, %xmm4
100001727:	c5 d1 ef ec                                  	vpxor	%xmm4, %xmm5, %xmm5
10000172b:	c4 e2 59 00 25 dc 39 00 00                   	vpshufb	14812(%rip), %xmm4, %xmm4
100001734:	c5 d1 ef ec                                  	vpxor	%xmm4, %xmm5, %xmm5
100001738:	c5 d1 ef ea                                  	vpxor	%xmm2, %xmm5, %xmm5
10000173c:	c5 fa 7f 2f                                  	vmovdqu	%xmm5, (%rdi)
100001740:	c4 e2 51 00 25 77 39 00 00                   	vpshufb	14711(%rip), %xmm5, %xmm4
100001749:	c4 c2 59 dd e7                               	vaesenclast	%xmm15, %xmm4, %xmm4
10000174e:	c5 f9 70 d4 aa                               	vpshufd	$-86, %xmm4, %xmm2
100001753:	c4 e2 49 00 25 b4 39 00 00                   	vpshufb	14772(%rip), %xmm6, %xmm4
10000175c:	c5 c9 ef f4                                  	vpxor	%xmm4, %xmm6, %xmm6
100001760:	c4 e2 59 00 25 a7 39 00 00                   	vpshufb	14759(%rip), %xmm4, %xmm4
100001769:	c5 c9 ef f4                                  	vpxor	%xmm4, %xmm6, %xmm6
10000176d:	c4 e2 59 00 25 9a 39 00 00                   	vpshufb	14746(%rip), %xmm4, %xmm4
100001776:	c5 c9 ef f4                                  	vpxor	%xmm4, %xmm6, %xmm6
10000177a:	c5 c9 ef f2                                  	vpxor	%xmm2, %xmm6, %xmm6
10000177e:	c5 fa 7f 77 10                               	vmovdqu	%xmm6, 16(%rdi)
100001783:	48 83 c7 20                                  	addq	$32, %rdi
100001787:	c4 e3 79 df d6 02                            	vaeskeygenassist	$2, %xmm6, %xmm2
10000178d:	c5 f9 70 d2 ff                               	vpshufd	$-1, %xmm2, %xmm2
100001792:	c4 e2 51 00 25 75 39 00 00                   	vpshufb	14709(%rip), %xmm5, %xmm4
10000179b:	c5 d1 ef ec                                  	vpxor	%xmm4, %xmm5, %xmm5
10000179f:	c4 e2 59 00 25 68 39 00 00                   	vpshufb	14696(%rip), %xmm4, %xmm4
1000017a8:	c5 d1 ef ec                                  	vpxor	%xmm4, %xmm5, %xmm5
1000017ac:	c4 e2 59 00 25 5b 39 00 00                   	vpshufb	14683(%rip), %xmm4, %xmm4
1000017b5:	c5 d1 ef ec                                  	vpxor	%xmm4, %xmm5, %xmm5
1000017b9:	c5 d1 ef ea                                  	vpxor	%xmm2, %xmm5, %xmm5
1000017bd:	c5 fa 7f 2f                                  	vmovdqu	%xmm5, (%rdi)
1000017c1:	c4 e2 51 00 25 f6 38 00 00                   	vpshufb	14582(%rip), %xmm5, %xmm4
1000017ca:	c4 c2 59 dd e7                               	vaesenclast	%xmm15, %xmm4, %xmm4
1000017cf:	c5 f9 70 d4 aa                               	vpshufd	$-86, %xmm4, %xmm2
1000017d4:	c4 e2 49 00 25 33 39 00 00                   	vpshufb	14643(%rip), %xmm6, %xmm4
1000017dd:	c5 c9 ef f4                                  	vpxor	%xmm4, %xmm6, %xmm6
1000017e1:	c4 e2 59 00 25 26 39 00 00                   	vpshufb	14630(%rip), %xmm4, %xmm4
1000017ea:	c5 c9 ef f4                                  	vpxor	%xmm4, %xmm6, %xmm6
1000017ee:	c4 e2 59 00 25 19 39 00 00                   	vpshufb	14617(%rip), %xmm4, %xmm4
1000017f7:	c5 c9 ef f4                                  	vpxor	%xmm4, %xmm6, %xmm6
1000017fb:	c5 c9 ef f2                                  	vpxor	%xmm2, %xmm6, %xmm6
1000017ff:	c5 fa 7f 77 10                               	vmovdqu	%xmm6, 16(%rdi)
100001804:	48 83 c7 20                                  	addq	$32, %rdi
100001808:	c4 e3 79 df d6 04                            	vaeskeygenassist	$4, %xmm6, %xmm2
10000180e:	c5 f9 70 d2 ff                               	vpshufd	$-1, %xmm2, %xmm2
100001813:	c4 e2 51 00 25 f4 38 00 00                   	vpshufb	14580(%rip), %xmm5, %xmm4
10000181c:	c5 d1 ef ec                                  	vpxor	%xmm4, %xmm5, %xmm5
100001820:	c4 e2 59 00 25 e7 38 00 00                   	vpshufb	14567(%rip), %xmm4, %xmm4
100001829:	c5 d1 ef ec                                  	vpxor	%xmm4, %xmm5, %xmm5
10000182d:	c4 e2 59 00 25 da 38 00 00                   	vpshufb	14554(%rip), %xmm4, %xmm4
100001836:	c5 d1 ef ec                                  	vpxor	%xmm4, %xmm5, %xmm5
10000183a:	c5 d1 ef ea                                  	vpxor	%xmm2, %xmm5, %xmm5
10000183e:	c5 fa 7f 2f                                  	vmovdqu	%xmm5, (%rdi)
100001842:	c4 e2 51 00 25 75 38 00 00                   	vpshufb	14453(%rip), %xmm5, %xmm4
10000184b:	c4 c2 59 dd e7                               	vaesenclast	%xmm15, %xmm4, %xmm4
100001850:	c5 f9 70 d4 aa                               	vpshufd	$-86, %xmm4, %xmm2
100001855:	c4 e2 49 00 25 b2 38 00 00                   	vpshufb	14514(%rip), %xmm6, %xmm4
10000185e:	c5 c9 ef f4                                  	vpxor	%xmm4, %xmm6, %xmm6
100001862:	c4 e2 59 00 25 a5 38 00 00                   	vpshufb	14501(%rip), %xmm4, %xmm4
10000186b:	c5 c9 ef f4                                  	vpxor	%xmm4, %xmm6, %xmm6
10000186f:	c4 e2 59 00 25 98 38 00 00                   	vpshufb	14488(%rip), %xmm4, %xmm4
100001878:	c5 c9 ef f4                                  	vpxor	%xmm4, %xmm6, %xmm6
10000187c:	c5 c9 ef f2                                  	vpxor	%xmm2, %xmm6, %xmm6
100001880:	c5 fa 7f 77 10                               	vmovdqu	%xmm6, 16(%rdi)
100001885:	48 83 c7 20                                  	addq	$32, %rdi
100001889:	c4 e3 79 df d6 08                            	vaeskeygenassist	$8, %xmm6, %xmm2
10000188f:	c5 f9 70 d2 ff                               	vpshufd	$-1, %xmm2, %xmm2
100001894:	c4 e2 51 00 25 73 38 00 00                   	vpshufb	14451(%rip), %xmm5, %xmm4
10000189d:	c5 d1 ef ec                                  	vpxor	%xmm4, %xmm5, %xmm5
1000018a1:	c4 e2 59 00 25 66 38 00 00                   	vpshufb	14438(%rip), %xmm4, %xmm4
1000018aa:	c5 d1 ef ec                                  	vpxor	%xmm4, %xmm5, %xmm5
1000018ae:	c4 e2 59 00 25 59 38 00 00                   	vpshufb	14425(%rip), %xmm4, %xmm4
1000018b7:	c5 d1 ef ec                                  	vpxor	%xmm4, %xmm5, %xmm5
1000018bb:	c5 d1 ef ea                                  	vpxor	%xmm2, %xmm5, %xmm5
1000018bf:	c5 fa 7f 2f                                  	vmovdqu	%xmm5, (%rdi)
1000018c3:	c4 e2 51 00 25 f4 37 00 00                   	vpshufb	14324(%rip), %xmm5, %xmm4
1000018cc:	c4 c2 59 dd e7                               	vaesenclast	%xmm15, %xmm4, %xmm4
1000018d1:	c5 f9 70 d4 aa                               	vpshufd	$-86, %xmm4, %xmm2
1000018d6:	c4 e2 49 00 25 31 38 00 00                   	vpshufb	14385(%rip), %xmm6, %xmm4
1000018df:	c5 c9 ef f4                                  	vpxor	%xmm4, %xmm6, %xmm6
1000018e3:	c4 e2 59 00 25 24 38 00 00                   	vpshufb	14372(%rip), %xmm4, %xmm4
1000018ec:	c5 c9 ef f4                                  	vpxor	%xmm4, %xmm6, %xmm6
1000018f0:	c4 e2 59 00 25 17 38 00 00                   	vpshufb	14359(%rip), %xmm4, %xmm4
1000018f9:	c5 c9 ef f4                                  	vpxor	%xmm4, %xmm6, %xmm6
1000018fd:	c5 c9 ef f2                                  	vpxor	%xmm2, %xmm6, %xmm6
100001901:	c5 fa 7f 77 10                               	vmovdqu	%xmm6, 16(%rdi)
100001906:	48 83 c7 20                                  	addq	$32, %rdi
10000190a:	c4 e3 79 df d6 10                            	vaeskeygenassist	$16, %xmm6, %xmm2
100001910:	c5 f9 70 d2 ff                               	vpshufd	$-1, %xmm2, %xmm2
100001915:	c4 e2 51 00 25 f2 37 00 00                   	vpshufb	14322(%rip), %xmm5, %xmm4
10000191e:	c5 d1 ef ec                                  	vpxor	%xmm4, %xmm5, %xmm5
100001922:	c4 e2 59 00 25 e5 37 00 00                   	vpshufb	14309(%rip), %xmm4, %xmm4
10000192b:	c5 d1 ef ec                                  	vpxor	%xmm4, %xmm5, %xmm5
10000192f:	c4 e2 59 00 25 d8 37 00 00                   	vpshufb	14296(%rip), %xmm4, %xmm4
100001938:	c5 d1 ef ec                                  	vpxor	%xmm4, %xmm5, %xmm5
10000193c:	c5 d1 ef ea                                  	vpxor	%xmm2, %xmm5, %xmm5
100001940:	c5 fa 7f 2f                                  	vmovdqu	%xmm5, (%rdi)
100001944:	c4 e2 51 00 25 73 37 00 00                   	vpshufb	14195(%rip), %xmm5, %xmm4
10000194d:	c4 c2 59 dd e7                               	vaesenclast	%xmm15, %xmm4, %xmm4
100001952:	c5 f9 70 d4 aa                               	vpshufd	$-86, %xmm4, %xmm2
100001957:	c4 e2 49 00 25 b0 37 00 00                   	vpshufb	14256(%rip), %xmm6, %xmm4
100001960:	c5 c9 ef f4                                  	vpxor	%xmm4, %xmm6, %xmm6
100001964:	c4 e2 59 00 25 a3 37 00 00                   	vpshufb	14243(%rip), %xmm4, %xmm4
10000196d:	c5 c9 ef f4                                  	vpxor	%xmm4, %xmm6, %xmm6
100001971:	c4 e2 59 00 25 96 37 00 00                   	vpshufb	14230(%rip), %xmm4, %xmm4
10000197a:	c5 c9 ef f4                                  	vpxor	%xmm4, %xmm6, %xmm6
10000197e:	c5 c9 ef f2                                  	vpxor	%xmm2, %xmm6, %xmm6
100001982:	c5 fa 7f 77 10                               	vmovdqu	%xmm6, 16(%rdi)
100001987:	48 83 c7 20                                  	addq	$32, %rdi
10000198b:	c4 e3 79 df d6 20                            	vaeskeygenassist	$32, %xmm6, %xmm2
100001991:	c5 f9 70 d2 ff                               	vpshufd	$-1, %xmm2, %xmm2
100001996:	c4 e2 51 00 25 71 37 00 00                   	vpshufb	14193(%rip), %xmm5, %xmm4
10000199f:	c5 d1 ef ec                                  	vpxor	%xmm4, %xmm5, %xmm5
1000019a3:	c4 e2 59 00 25 64 37 00 00                   	vpshufb	14180(%rip), %xmm4, %xmm4
1000019ac:	c5 d1 ef ec                                  	vpxor	%xmm4, %xmm5, %xmm5
1000019b0:	c4 e2 59 00 25 57 37 00 00                   	vpshufb	14167(%rip), %xmm4, %xmm4
1000019b9:	c5 d1 ef ec                                  	vpxor	%xmm4, %xmm5, %xmm5
1000019bd:	c5 d1 ef ea                                  	vpxor	%xmm2, %xmm5, %xmm5
1000019c1:	c5 fa 7f 2f                                  	vmovdqu	%xmm5, (%rdi)
1000019c5:	c4 e2 51 00 25 f2 36 00 00                   	vpshufb	14066(%rip), %xmm5, %xmm4
1000019ce:	c4 c2 59 dd e7                               	vaesenclast	%xmm15, %xmm4, %xmm4
1000019d3:	c5 f9 70 d4 aa                               	vpshufd	$-86, %xmm4, %xmm2
1000019d8:	c4 e2 49 00 25 2f 37 00 00                   	vpshufb	14127(%rip), %xmm6, %xmm4
1000019e1:	c5 c9 ef f4                                  	vpxor	%xmm4, %xmm6, %xmm6
1000019e5:	c4 e2 59 00 25 22 37 00 00                   	vpshufb	14114(%rip), %xmm4, %xmm4
1000019ee:	c5 c9 ef f4                                  	vpxor	%xmm4, %xmm6, %xmm6
1000019f2:	c4 e2 59 00 25 15 37 00 00                   	vpshufb	14101(%rip), %xmm4, %xmm4
1000019fb:	c5 c9 ef f4                                  	vpxor	%xmm4, %xmm6, %xmm6
1000019ff:	c5 c9 ef f2                                  	vpxor	%xmm2, %xmm6, %xmm6
100001a03:	c5 fa 7f 77 10                               	vmovdqu	%xmm6, 16(%rdi)
100001a08:	48 83 c7 20                                  	addq	$32, %rdi
100001a0c:	c4 e3 79 df d6 40                            	vaeskeygenassist	$64, %xmm6, %xmm2
100001a12:	c5 f9 70 d2 ff                               	vpshufd	$-1, %xmm2, %xmm2
100001a17:	c4 e2 51 00 25 f0 36 00 00                   	vpshufb	14064(%rip), %xmm5, %xmm4
100001a20:	c5 d1 ef ec                                  	vpxor	%xmm4, %xmm5, %xmm5
100001a24:	c4 e2 59 00 25 e3 36 00 00                   	vpshufb	14051(%rip), %xmm4, %xmm4
100001a2d:	c5 d1 ef ec                                  	vpxor	%xmm4, %xmm5, %xmm5
100001a31:	c4 e2 59 00 25 d6 36 00 00                   	vpshufb	14038(%rip), %xmm4, %xmm4
100001a3a:	c5 d1 ef ec                                  	vpxor	%xmm4, %xmm5, %xmm5
100001a3e:	c5 d1 ef ea                                  	vpxor	%xmm2, %xmm5, %xmm5
100001a42:	c5 fa 7f 2f                                  	vmovdqu	%xmm5, (%rdi)
100001a46:	c5 fc 77                                     	vzeroall
100001a49:	c3                                           	retq
100001a4a:	90                                           	nop
100001a4b:	90                                           	nop
100001a4c:	90                                           	nop
100001a4d:	90                                           	nop
100001a4e:	90                                           	nop
100001a4f:	90                                           	nop

_OPENSSL_ia32_cpuid:
100001a50:	48 89 ff                                     	movq	%rdi, %rdi
100001a53:	49 89 d8                                     	movq	%rbx, %r8
100001a56:	31 c0                                        	xorl	%eax, %eax
100001a58:	89 47 08                                     	movl	%eax, 8(%rdi)
100001a5b:	0f a2                                        	cpuid
100001a5d:	41 89 c3                                     	movl	%eax, %r11d
100001a60:	31 c0                                        	xorl	%eax, %eax
100001a62:	81 fb 47 65 6e 75                            	cmpl	$1970169159, %ebx
100001a68:	0f 95 c0                                     	setne	%al
100001a6b:	41 89 c1                                     	movl	%eax, %r9d
100001a6e:	81 fa 69 6e 65 49                            	cmpl	$1231384169, %edx
100001a74:	0f 95 c0                                     	setne	%al
100001a77:	41 09 c1                                     	orl	%eax, %r9d
100001a7a:	81 f9 6e 74 65 6c                            	cmpl	$1818588270, %ecx
100001a80:	0f 95 c0                                     	setne	%al
100001a83:	41 09 c1                                     	orl	%eax, %r9d
100001a86:	0f 84 87 00 00 00                            	je	135
100001a8c:	81 fb 41 75 74 68                            	cmpl	$1752462657, %ebx
100001a92:	0f 95 c0                                     	setne	%al
100001a95:	41 89 c2                                     	movl	%eax, %r10d
100001a98:	81 fa 65 6e 74 69                            	cmpl	$1769238117, %edx
100001a9e:	0f 95 c0                                     	setne	%al
100001aa1:	41 09 c2                                     	orl	%eax, %r10d
100001aa4:	81 f9 63 41 4d 44                            	cmpl	$1145913699, %ecx
100001aaa:	0f 95 c0                                     	setne	%al
100001aad:	41 09 c2                                     	orl	%eax, %r10d
100001ab0:	75 61                                        	jne	97
100001ab2:	b8 00 00 00 80                               	movl	$2147483648, %eax
100001ab7:	0f a2                                        	cpuid
100001ab9:	3d 01 00 00 80                               	cmpl	$2147483649, %eax
100001abe:	72 53                                        	jb	83
100001ac0:	41 89 c2                                     	movl	%eax, %r10d
100001ac3:	b8 01 00 00 80                               	movl	$2147483649, %eax
100001ac8:	0f a2                                        	cpuid
100001aca:	41 09 c9                                     	orl	%ecx, %r9d
100001acd:	41 81 e1 01 08 00 00                         	andl	$2049, %r9d
100001ad4:	41 81 fa 08 00 00 80                         	cmpl	$2147483656, %r10d
100001adb:	72 36                                        	jb	54
100001add:	b8 08 00 00 80                               	movl	$2147483656, %eax
100001ae2:	0f a2                                        	cpuid
100001ae4:	4c 0f b6 d1                                  	movzbq	%cl, %r10
100001ae8:	49 ff c2                                     	incq	%r10
100001aeb:	b8 01 00 00 00                               	movl	$1, %eax
100001af0:	0f a2                                        	cpuid
100001af2:	0f ba e2 1c                                  	btl	$28, %edx
100001af6:	0f 83 9c 00 00 00                            	jae	156
100001afc:	c1 eb 10                                     	shrl	$16, %ebx
100001aff:	44 38 d3                                     	cmpb	%r10b, %bl
100001b02:	0f 87 90 00 00 00                            	ja	144
100001b08:	81 e2 ff ff ff ef                            	andl	$4026531839, %edx
100001b0e:	e9 85 00 00 00                               	jmp	133
100001b13:	41 83 fb 04                                  	cmpl	$4, %r11d
100001b17:	41 ba ff ff ff ff                            	movl	$4294967295, %r10d
100001b1d:	72 2c                                        	jb	44
100001b1f:	b8 04 00 00 00                               	movl	$4, %eax
100001b24:	b9 00 00 00 00                               	movl	$0, %ecx
100001b29:	0f a2                                        	cpuid
100001b2b:	41 89 c2                                     	movl	%eax, %r10d
100001b2e:	41 c1 ea 0e                                  	shrl	$14, %r10d
100001b32:	41 81 e2 ff 0f 00 00                         	andl	$4095, %r10d
100001b39:	41 83 fb 07                                  	cmpl	$7, %r11d
100001b3d:	72 0c                                        	jb	12
100001b3f:	b8 07 00 00 00                               	movl	$7, %eax
100001b44:	31 c9                                        	xorl	%ecx, %ecx
100001b46:	0f a2                                        	cpuid
100001b48:	89 5f 08                                     	movl	%ebx, 8(%rdi)
100001b4b:	b8 01 00 00 00                               	movl	$1, %eax
100001b50:	0f a2                                        	cpuid
100001b52:	81 e2 ff ff ef bf                            	andl	$3220176895, %edx
100001b58:	41 83 f9 00                                  	cmpl	$0, %r9d
100001b5c:	75 14                                        	jne	20
100001b5e:	81 ca 00 00 00 40                            	orl	$1073741824, %edx
100001b64:	80 e4 0f                                     	andb	$15, %ah
100001b67:	80 fc 0f                                     	cmpb	$15, %ah
100001b6a:	75 06                                        	jne	6
100001b6c:	81 ca 00 00 10 00                            	orl	$1048576, %edx
100001b72:	0f ba e2 1c                                  	btl	$28, %edx
100001b76:	73 20                                        	jae	32
100001b78:	81 e2 ff ff ff ef                            	andl	$4026531839, %edx
100001b7e:	41 83 fa 00                                  	cmpl	$0, %r10d
100001b82:	74 14                                        	je	20
100001b84:	81 ca 00 00 00 10                            	orl	$268435456, %edx
100001b8a:	c1 eb 10                                     	shrl	$16, %ebx
100001b8d:	80 fb 01                                     	cmpb	$1, %bl
100001b90:	77 06                                        	ja	6
100001b92:	81 e2 ff ff ff ef                            	andl	$4026531839, %edx
100001b98:	41 81 e1 00 08 00 00                         	andl	$2048, %r9d
100001b9f:	81 e1 ff f7 ff ff                            	andl	$4294965247, %ecx
100001ba5:	41 09 c9                                     	orl	%ecx, %r9d
100001ba8:	41 89 d2                                     	movl	%edx, %r10d
100001bab:	41 0f ba e1 1b                               	btl	$27, %r9d
100001bb0:	73 0d                                        	jae	13
100001bb2:	31 c9                                        	xorl	%ecx, %ecx
100001bb4:	0f 01 d0                                     	xgetbv
100001bb7:	83 e0 06                                     	andl	$6, %eax
100001bba:	83 f8 06                                     	cmpl	$6, %eax
100001bbd:	74 0c                                        	je	12
100001bbf:	b8 ff e7 ff ef                               	movl	$4026525695, %eax
100001bc4:	41 21 c1                                     	andl	%eax, %r9d
100001bc7:	83 67 08 df                                  	andl	$-33, 8(%rdi)
100001bcb:	44 89 4f 04                                  	movl	%r9d, 4(%rdi)
100001bcf:	44 89 17                                     	movl	%r10d, (%rdi)
100001bd2:	4c 89 c3                                     	movq	%r8, %rbx
100001bd5:	f3                                           	rep
100001bd6:	c3                                           	retq
100001bd7:	90                                           	nop
100001bd8:	90                                           	nop
100001bd9:	90                                           	nop
100001bda:	90                                           	nop
100001bdb:	90                                           	nop
100001bdc:	90                                           	nop
100001bdd:	90                                           	nop
100001bde:	90                                           	nop
100001bdf:	90                                           	nop

_OPENSSL_cpuid_setup:
100001be0:	55                                           	pushq	%rbp
100001be1:	48 89 e5                                     	movq	%rsp, %rbp
100001be4:	48 83 ec 20                                  	subq	$32, %rsp
100001be8:	48 8d 3d 31 35 00 00                         	leaq	13617(%rip), %rdi
100001bef:	e8 5c fe ff ff                               	callq	-420
100001bf4:	48 8d 3d 68 33 00 00                         	leaq	13160(%rip), %rdi
100001bfb:	48 89 45 e8                                  	movq	%rax, -24(%rbp)
100001bff:	e8 42 32 00 00                               	callq	12866
100001c04:	48 89 45 f8                                  	movq	%rax, -8(%rbp)
100001c08:	48 81 7d f8 00 00 00 00                      	cmpq	$0, -8(%rbp)
100001c10:	0f 85 05 00 00 00                            	jne	5
100001c16:	e9 53 00 00 00                               	jmp	83
100001c1b:	48 8d 3d fe 34 00 00                         	leaq	13566(%rip), %rdi
100001c22:	48 8b 75 f8                                  	movq	-8(%rbp), %rsi
100001c26:	e8 55 00 00 00                               	callq	85
100001c2b:	be 3a 00 00 00                               	movl	$58, %esi
100001c30:	48 8b 7d f8                                  	movq	-8(%rbp), %rdi
100001c34:	e8 2b 32 00 00                               	callq	12843
100001c39:	48 89 45 f0                                  	movq	%rax, -16(%rbp)
100001c3d:	48 81 7d f0 00 00 00 00                      	cmpq	$0, -16(%rbp)
100001c45:	0f 84 23 00 00 00                            	je	35
100001c4b:	48 8d 05 ce 34 00 00                         	leaq	13518(%rip), %rax
100001c52:	48 05 08 00 00 00                            	addq	$8, %rax
100001c58:	48 8b 4d f0                                  	movq	-16(%rbp), %rcx
100001c5c:	48 81 c1 01 00 00 00                         	addq	$1, %rcx
100001c63:	48 89 c7                                     	movq	%rax, %rdi
100001c66:	48 89 ce                                     	movq	%rcx, %rsi
100001c69:	e8 12 00 00 00                               	callq	18
100001c6e:	48 83 c4 20                                  	addq	$32, %rsp
100001c72:	5d                                           	popq	%rbp
100001c73:	c3                                           	retq
100001c74:	66 66 66 2e 0f 1f 84 00 00 00 00 00          	nopw	%cs:(%rax,%rax)

_handle_cpu_env:
100001c80:	55                                           	pushq	%rbp
100001c81:	48 89 e5                                     	movq	%rsp, %rbp
100001c84:	48 83 ec 20                                  	subq	$32, %rsp
100001c88:	48 8d 05 e4 32 00 00                         	leaq	13028(%rip), %rax
100001c8f:	48 8d 55 e0                                  	leaq	-32(%rbp), %rdx
100001c93:	48 89 7d f8                                  	movq	%rdi, -8(%rbp)
100001c97:	48 89 75 f0                                  	movq	%rsi, -16(%rbp)
100001c9b:	48 8b 75 f0                                  	movq	-16(%rbp), %rsi
100001c9f:	0f be 0e                                     	movsbl	(%rsi), %ecx
100001ca2:	81 f9 7e 00 00 00                            	cmpl	$126, %ecx
100001ca8:	41 0f 94 c0                                  	sete	%r8b
100001cac:	41 80 e0 01                                  	andb	$1, %r8b
100001cb0:	41 0f b6 c8                                  	movzbl	%r8b, %ecx
100001cb4:	89 4d ec                                     	movl	%ecx, -20(%rbp)
100001cb7:	48 8b 75 f0                                  	movq	-16(%rbp), %rsi
100001cbb:	48 63 7d ec                                  	movslq	-20(%rbp), %rdi
100001cbf:	48 01 fe                                     	addq	%rdi, %rsi
100001cc2:	48 89 f7                                     	movq	%rsi, %rdi
100001cc5:	48 89 c6                                     	movq	%rax, %rsi
100001cc8:	b0 00                                        	movb	$0, %al
100001cca:	e8 8f 31 00 00                               	callq	12687
100001ccf:	3d 00 00 00 00                               	cmpl	$0, %eax
100001cd4:	0f 85 05 00 00 00                            	jne	5
100001cda:	e9 67 00 00 00                               	jmp	103
100001cdf:	81 7d ec 00 00 00 00                         	cmpl	$0, -20(%rbp)
100001ce6:	0f 84 3d 00 00 00                            	je	61
100001cec:	48 8b 45 e0                                  	movq	-32(%rbp), %rax
100001cf0:	48 35 ff ff ff ff                            	xorq	$-1, %rax
100001cf6:	48 8b 4d f8                                  	movq	-8(%rbp), %rcx
100001cfa:	8b 11                                        	movl	(%rcx), %edx
100001cfc:	89 d6                                        	movl	%edx, %esi
100001cfe:	48 21 c6                                     	andq	%rax, %rsi
100001d01:	89 f2                                        	movl	%esi, %edx
100001d03:	89 11                                        	movl	%edx, (%rcx)
100001d05:	48 8b 45 e0                                  	movq	-32(%rbp), %rax
100001d09:	48 c1 e8 20                                  	shrq	$32, %rax
100001d0d:	48 35 ff ff ff ff                            	xorq	$-1, %rax
100001d13:	48 8b 4d f8                                  	movq	-8(%rbp), %rcx
100001d17:	8b 51 04                                     	movl	4(%rcx), %edx
100001d1a:	89 d6                                        	movl	%edx, %esi
100001d1c:	48 21 c6                                     	andq	%rax, %rsi
100001d1f:	89 f2                                        	movl	%esi, %edx
100001d21:	89 51 04                                     	movl	%edx, 4(%rcx)
100001d24:	e9 1d 00 00 00                               	jmp	29
100001d29:	48 8b 45 e0                                  	movq	-32(%rbp), %rax
100001d2d:	89 c1                                        	movl	%eax, %ecx
100001d2f:	48 8b 45 f8                                  	movq	-8(%rbp), %rax
100001d33:	89 08                                        	movl	%ecx, (%rax)
100001d35:	48 8b 45 e0                                  	movq	-32(%rbp), %rax
100001d39:	48 c1 e8 20                                  	shrq	$32, %rax
100001d3d:	89 c1                                        	movl	%eax, %ecx
100001d3f:	48 8b 45 f8                                  	movq	-8(%rbp), %rax
100001d43:	89 48 04                                     	movl	%ecx, 4(%rax)
100001d46:	48 83 c4 20                                  	addq	$32, %rsp
100001d4a:	5d                                           	popq	%rbp
100001d4b:	c3                                           	retq
100001d4c:	90                                           	nop
100001d4d:	90                                           	nop
100001d4e:	90                                           	nop
100001d4f:	90                                           	nop
100001d50:	90                                           	nop
100001d51:	90                                           	nop
100001d52:	90                                           	nop
100001d53:	90                                           	nop
100001d54:	90                                           	nop
100001d55:	90                                           	nop
100001d56:	90                                           	nop
100001d57:	90                                           	nop
100001d58:	90                                           	nop
100001d59:	90                                           	nop
100001d5a:	90                                           	nop
100001d5b:	90                                           	nop
100001d5c:	90                                           	nop
100001d5d:	90                                           	nop
100001d5e:	90                                           	nop
100001d5f:	90                                           	nop
100001d60:	90                                           	nop
100001d61:	90                                           	nop
100001d62:	90                                           	nop
100001d63:	90                                           	nop
100001d64:	90                                           	nop
100001d65:	90                                           	nop
100001d66:	90                                           	nop
100001d67:	90                                           	nop
100001d68:	90                                           	nop
100001d69:	90                                           	nop
100001d6a:	90                                           	nop
100001d6b:	90                                           	nop
100001d6c:	90                                           	nop
100001d6d:	90                                           	nop
100001d6e:	90                                           	nop
100001d6f:	90                                           	nop
100001d70:	90                                           	nop
100001d71:	90                                           	nop
100001d72:	90                                           	nop
100001d73:	90                                           	nop
100001d74:	90                                           	nop
100001d75:	90                                           	nop
100001d76:	90                                           	nop
100001d77:	90                                           	nop
100001d78:	90                                           	nop
100001d79:	90                                           	nop
100001d7a:	90                                           	nop
100001d7b:	90                                           	nop
100001d7c:	90                                           	nop
100001d7d:	90                                           	nop
100001d7e:	90                                           	nop
100001d7f:	90                                           	nop

_aesni_encrypt:
100001d80:	0f 10 17                                     	movups	(%rdi), %xmm2
100001d83:	8b 82 f0 00 00 00                            	movl	240(%rdx), %eax
100001d89:	0f 10 02                                     	movups	(%rdx), %xmm0
100001d8c:	0f 10 4a 10                                  	movups	16(%rdx), %xmm1
100001d90:	48 8d 52 20                                  	leaq	32(%rdx), %rdx
100001d94:	0f 57 d0                                     	xorps	%xmm0, %xmm2
100001d97:	66 0f 38 dc d1                               	aesenc	%xmm1, %xmm2
100001d9c:	ff c8                                        	decl	%eax
100001d9e:	0f 10 0a                                     	movups	(%rdx), %xmm1
100001da1:	48 8d 52 10                                  	leaq	16(%rdx), %rdx
100001da5:	75 f0                                        	jne	-16
100001da7:	66 0f 38 dd d1                               	aesenclast	%xmm1, %xmm2
100001dac:	0f 11 16                                     	movups	%xmm2, (%rsi)
100001daf:	f3                                           	rep
100001db0:	c3                                           	retq
100001db1:	66 66 66 66 66 66 2e 0f 1f 84 00 00 00 00 00 	nopw	%cs:(%rax,%rax)

_aesni_decrypt:
100001dc0:	0f 10 17                                     	movups	(%rdi), %xmm2
100001dc3:	8b 82 f0 00 00 00                            	movl	240(%rdx), %eax
100001dc9:	0f 10 02                                     	movups	(%rdx), %xmm0
100001dcc:	0f 10 4a 10                                  	movups	16(%rdx), %xmm1
100001dd0:	48 8d 52 20                                  	leaq	32(%rdx), %rdx
100001dd4:	0f 57 d0                                     	xorps	%xmm0, %xmm2
100001dd7:	66 0f 38 de d1                               	aesdec	%xmm1, %xmm2
100001ddc:	ff c8                                        	decl	%eax
100001dde:	0f 10 0a                                     	movups	(%rdx), %xmm1
100001de1:	48 8d 52 10                                  	leaq	16(%rdx), %rdx
100001de5:	75 f0                                        	jne	-16
100001de7:	66 0f 38 df d1                               	aesdeclast	%xmm1, %xmm2
100001dec:	0f 11 16                                     	movups	%xmm2, (%rsi)
100001def:	f3                                           	rep
100001df0:	c3                                           	retq
100001df1:	66 66 66 66 66 66 2e 0f 1f 84 00 00 00 00 00 	nopw	%cs:(%rax,%rax)

_aesni_encrypt2:
100001e00:	0f 10 01                                     	movups	(%rcx), %xmm0
100001e03:	c1 e0 04                                     	shll	$4, %eax
100001e06:	0f 10 49 10                                  	movups	16(%rcx), %xmm1
100001e0a:	0f 57 d0                                     	xorps	%xmm0, %xmm2
100001e0d:	0f 57 d8                                     	xorps	%xmm0, %xmm3
100001e10:	0f 10 41 20                                  	movups	32(%rcx), %xmm0
100001e14:	48 8d 4c 01 20                               	leaq	32(%rcx,%rax), %rcx
100001e19:	48 f7 d8                                     	negq	%rax
100001e1c:	48 83 c0 10                                  	addq	$16, %rax
100001e20:	66 0f 38 dc d1                               	aesenc	%xmm1, %xmm2
100001e25:	66 0f 38 dc d9                               	aesenc	%xmm1, %xmm3
100001e2a:	0f 10 0c 01                                  	movups	(%rcx,%rax), %xmm1
100001e2e:	48 83 c0 20                                  	addq	$32, %rax
100001e32:	66 0f 38 dc d0                               	aesenc	%xmm0, %xmm2
100001e37:	66 0f 38 dc d8                               	aesenc	%xmm0, %xmm3
100001e3c:	0f 10 44 01 f0                               	movups	-16(%rcx,%rax), %xmm0
100001e41:	75 dd                                        	jne	-35
100001e43:	66 0f 38 dc d1                               	aesenc	%xmm1, %xmm2
100001e48:	66 0f 38 dc d9                               	aesenc	%xmm1, %xmm3
100001e4d:	66 0f 38 dd d0                               	aesenclast	%xmm0, %xmm2
100001e52:	66 0f 38 dd d8                               	aesenclast	%xmm0, %xmm3
100001e57:	f3                                           	rep
100001e58:	c3                                           	retq
100001e59:	0f 1f 80 00 00 00 00                         	nopl	(%rax)

_aesni_decrypt2:
100001e60:	0f 10 01                                     	movups	(%rcx), %xmm0
100001e63:	c1 e0 04                                     	shll	$4, %eax
100001e66:	0f 10 49 10                                  	movups	16(%rcx), %xmm1
100001e6a:	0f 57 d0                                     	xorps	%xmm0, %xmm2
100001e6d:	0f 57 d8                                     	xorps	%xmm0, %xmm3
100001e70:	0f 10 41 20                                  	movups	32(%rcx), %xmm0
100001e74:	48 8d 4c 01 20                               	leaq	32(%rcx,%rax), %rcx
100001e79:	48 f7 d8                                     	negq	%rax
100001e7c:	48 83 c0 10                                  	addq	$16, %rax
100001e80:	66 0f 38 de d1                               	aesdec	%xmm1, %xmm2
100001e85:	66 0f 38 de d9                               	aesdec	%xmm1, %xmm3
100001e8a:	0f 10 0c 01                                  	movups	(%rcx,%rax), %xmm1
100001e8e:	48 83 c0 20                                  	addq	$32, %rax
100001e92:	66 0f 38 de d0                               	aesdec	%xmm0, %xmm2
100001e97:	66 0f 38 de d8                               	aesdec	%xmm0, %xmm3
100001e9c:	0f 10 44 01 f0                               	movups	-16(%rcx,%rax), %xmm0
100001ea1:	75 dd                                        	jne	-35
100001ea3:	66 0f 38 de d1                               	aesdec	%xmm1, %xmm2
100001ea8:	66 0f 38 de d9                               	aesdec	%xmm1, %xmm3
100001ead:	66 0f 38 df d0                               	aesdeclast	%xmm0, %xmm2
100001eb2:	66 0f 38 df d8                               	aesdeclast	%xmm0, %xmm3
100001eb7:	f3                                           	rep
100001eb8:	c3                                           	retq
100001eb9:	0f 1f 80 00 00 00 00                         	nopl	(%rax)

_aesni_encrypt3:
100001ec0:	0f 10 01                                     	movups	(%rcx), %xmm0
100001ec3:	c1 e0 04                                     	shll	$4, %eax
100001ec6:	0f 10 49 10                                  	movups	16(%rcx), %xmm1
100001eca:	0f 57 d0                                     	xorps	%xmm0, %xmm2
100001ecd:	0f 57 d8                                     	xorps	%xmm0, %xmm3
100001ed0:	0f 57 e0                                     	xorps	%xmm0, %xmm4
100001ed3:	0f 10 41 20                                  	movups	32(%rcx), %xmm0
100001ed7:	48 8d 4c 01 20                               	leaq	32(%rcx,%rax), %rcx
100001edc:	48 f7 d8                                     	negq	%rax
100001edf:	48 83 c0 10                                  	addq	$16, %rax
100001ee3:	66 0f 38 dc d1                               	aesenc	%xmm1, %xmm2
100001ee8:	66 0f 38 dc d9                               	aesenc	%xmm1, %xmm3
100001eed:	66 0f 38 dc e1                               	aesenc	%xmm1, %xmm4
100001ef2:	0f 10 0c 01                                  	movups	(%rcx,%rax), %xmm1
100001ef6:	48 83 c0 20                                  	addq	$32, %rax
100001efa:	66 0f 38 dc d0                               	aesenc	%xmm0, %xmm2
100001eff:	66 0f 38 dc d8                               	aesenc	%xmm0, %xmm3
100001f04:	66 0f 38 dc e0                               	aesenc	%xmm0, %xmm4
100001f09:	0f 10 44 01 f0                               	movups	-16(%rcx,%rax), %xmm0
100001f0e:	75 d3                                        	jne	-45
100001f10:	66 0f 38 dc d1                               	aesenc	%xmm1, %xmm2
100001f15:	66 0f 38 dc d9                               	aesenc	%xmm1, %xmm3
100001f1a:	66 0f 38 dc e1                               	aesenc	%xmm1, %xmm4
100001f1f:	66 0f 38 dd d0                               	aesenclast	%xmm0, %xmm2
100001f24:	66 0f 38 dd d8                               	aesenclast	%xmm0, %xmm3
100001f29:	66 0f 38 dd e0                               	aesenclast	%xmm0, %xmm4
100001f2e:	f3                                           	rep
100001f2f:	c3                                           	retq

_aesni_decrypt3:
100001f30:	0f 10 01                                     	movups	(%rcx), %xmm0
100001f33:	c1 e0 04                                     	shll	$4, %eax
100001f36:	0f 10 49 10                                  	movups	16(%rcx), %xmm1
100001f3a:	0f 57 d0                                     	xorps	%xmm0, %xmm2
100001f3d:	0f 57 d8                                     	xorps	%xmm0, %xmm3
100001f40:	0f 57 e0                                     	xorps	%xmm0, %xmm4
100001f43:	0f 10 41 20                                  	movups	32(%rcx), %xmm0
100001f47:	48 8d 4c 01 20                               	leaq	32(%rcx,%rax), %rcx
100001f4c:	48 f7 d8                                     	negq	%rax
100001f4f:	48 83 c0 10                                  	addq	$16, %rax
100001f53:	66 0f 38 de d1                               	aesdec	%xmm1, %xmm2
100001f58:	66 0f 38 de d9                               	aesdec	%xmm1, %xmm3
100001f5d:	66 0f 38 de e1                               	aesdec	%xmm1, %xmm4
100001f62:	0f 10 0c 01                                  	movups	(%rcx,%rax), %xmm1
100001f66:	48 83 c0 20                                  	addq	$32, %rax
100001f6a:	66 0f 38 de d0                               	aesdec	%xmm0, %xmm2
100001f6f:	66 0f 38 de d8                               	aesdec	%xmm0, %xmm3
100001f74:	66 0f 38 de e0                               	aesdec	%xmm0, %xmm4
100001f79:	0f 10 44 01 f0                               	movups	-16(%rcx,%rax), %xmm0
100001f7e:	75 d3                                        	jne	-45
100001f80:	66 0f 38 de d1                               	aesdec	%xmm1, %xmm2
100001f85:	66 0f 38 de d9                               	aesdec	%xmm1, %xmm3
100001f8a:	66 0f 38 de e1                               	aesdec	%xmm1, %xmm4
100001f8f:	66 0f 38 df d0                               	aesdeclast	%xmm0, %xmm2
100001f94:	66 0f 38 df d8                               	aesdeclast	%xmm0, %xmm3
100001f99:	66 0f 38 df e0                               	aesdeclast	%xmm0, %xmm4
100001f9e:	f3                                           	rep
100001f9f:	c3                                           	retq

_aesni_encrypt4:
100001fa0:	0f 10 01                                     	movups	(%rcx), %xmm0
100001fa3:	c1 e0 04                                     	shll	$4, %eax
100001fa6:	0f 10 49 10                                  	movups	16(%rcx), %xmm1
100001faa:	0f 57 d0                                     	xorps	%xmm0, %xmm2
100001fad:	0f 57 d8                                     	xorps	%xmm0, %xmm3
100001fb0:	0f 57 e0                                     	xorps	%xmm0, %xmm4
100001fb3:	0f 57 e8                                     	xorps	%xmm0, %xmm5
100001fb6:	0f 10 41 20                                  	movups	32(%rcx), %xmm0
100001fba:	48 8d 4c 01 20                               	leaq	32(%rcx,%rax), %rcx
100001fbf:	48 f7 d8                                     	negq	%rax
100001fc2:	0f 1f 00                                     	nopl	(%rax)
100001fc5:	48 83 c0 10                                  	addq	$16, %rax
100001fc9:	66 0f 38 dc d1                               	aesenc	%xmm1, %xmm2
100001fce:	66 0f 38 dc d9                               	aesenc	%xmm1, %xmm3
100001fd3:	66 0f 38 dc e1                               	aesenc	%xmm1, %xmm4
100001fd8:	66 0f 38 dc e9                               	aesenc	%xmm1, %xmm5
100001fdd:	0f 10 0c 01                                  	movups	(%rcx,%rax), %xmm1
100001fe1:	48 83 c0 20                                  	addq	$32, %rax
100001fe5:	66 0f 38 dc d0                               	aesenc	%xmm0, %xmm2
100001fea:	66 0f 38 dc d8                               	aesenc	%xmm0, %xmm3
100001fef:	66 0f 38 dc e0                               	aesenc	%xmm0, %xmm4
100001ff4:	66 0f 38 dc e8                               	aesenc	%xmm0, %xmm5
100001ff9:	0f 10 44 01 f0                               	movups	-16(%rcx,%rax), %xmm0
100001ffe:	75 c9                                        	jne	-55
100002000:	66 0f 38 dc d1                               	aesenc	%xmm1, %xmm2
100002005:	66 0f 38 dc d9                               	aesenc	%xmm1, %xmm3
10000200a:	66 0f 38 dc e1                               	aesenc	%xmm1, %xmm4
10000200f:	66 0f 38 dc e9                               	aesenc	%xmm1, %xmm5
100002014:	66 0f 38 dd d0                               	aesenclast	%xmm0, %xmm2
100002019:	66 0f 38 dd d8                               	aesenclast	%xmm0, %xmm3
10000201e:	66 0f 38 dd e0                               	aesenclast	%xmm0, %xmm4
100002023:	66 0f 38 dd e8                               	aesenclast	%xmm0, %xmm5
100002028:	f3                                           	rep
100002029:	c3                                           	retq
10000202a:	66 0f 1f 44 00 00                            	nopw	(%rax,%rax)

_aesni_decrypt4:
100002030:	0f 10 01                                     	movups	(%rcx), %xmm0
100002033:	c1 e0 04                                     	shll	$4, %eax
100002036:	0f 10 49 10                                  	movups	16(%rcx), %xmm1
10000203a:	0f 57 d0                                     	xorps	%xmm0, %xmm2
10000203d:	0f 57 d8                                     	xorps	%xmm0, %xmm3
100002040:	0f 57 e0                                     	xorps	%xmm0, %xmm4
100002043:	0f 57 e8                                     	xorps	%xmm0, %xmm5
100002046:	0f 10 41 20                                  	movups	32(%rcx), %xmm0
10000204a:	48 8d 4c 01 20                               	leaq	32(%rcx,%rax), %rcx
10000204f:	48 f7 d8                                     	negq	%rax
100002052:	0f 1f 00                                     	nopl	(%rax)
100002055:	48 83 c0 10                                  	addq	$16, %rax
100002059:	66 0f 38 de d1                               	aesdec	%xmm1, %xmm2
10000205e:	66 0f 38 de d9                               	aesdec	%xmm1, %xmm3
100002063:	66 0f 38 de e1                               	aesdec	%xmm1, %xmm4
100002068:	66 0f 38 de e9                               	aesdec	%xmm1, %xmm5
10000206d:	0f 10 0c 01                                  	movups	(%rcx,%rax), %xmm1
100002071:	48 83 c0 20                                  	addq	$32, %rax
100002075:	66 0f 38 de d0                               	aesdec	%xmm0, %xmm2
10000207a:	66 0f 38 de d8                               	aesdec	%xmm0, %xmm3
10000207f:	66 0f 38 de e0                               	aesdec	%xmm0, %xmm4
100002084:	66 0f 38 de e8                               	aesdec	%xmm0, %xmm5
100002089:	0f 10 44 01 f0                               	movups	-16(%rcx,%rax), %xmm0
10000208e:	75 c9                                        	jne	-55
100002090:	66 0f 38 de d1                               	aesdec	%xmm1, %xmm2
100002095:	66 0f 38 de d9                               	aesdec	%xmm1, %xmm3
10000209a:	66 0f 38 de e1                               	aesdec	%xmm1, %xmm4
10000209f:	66 0f 38 de e9                               	aesdec	%xmm1, %xmm5
1000020a4:	66 0f 38 df d0                               	aesdeclast	%xmm0, %xmm2
1000020a9:	66 0f 38 df d8                               	aesdeclast	%xmm0, %xmm3
1000020ae:	66 0f 38 df e0                               	aesdeclast	%xmm0, %xmm4
1000020b3:	66 0f 38 df e8                               	aesdeclast	%xmm0, %xmm5
1000020b8:	f3                                           	rep
1000020b9:	c3                                           	retq
1000020ba:	66 0f 1f 44 00 00                            	nopw	(%rax,%rax)

_aesni_encrypt6:
1000020c0:	0f 10 01                                     	movups	(%rcx), %xmm0
1000020c3:	c1 e0 04                                     	shll	$4, %eax
1000020c6:	0f 10 49 10                                  	movups	16(%rcx), %xmm1
1000020ca:	0f 57 d0                                     	xorps	%xmm0, %xmm2
1000020cd:	66 0f ef d8                                  	pxor	%xmm0, %xmm3
1000020d1:	66 0f ef e0                                  	pxor	%xmm0, %xmm4
1000020d5:	66 0f 38 dc d1                               	aesenc	%xmm1, %xmm2
1000020da:	48 8d 4c 01 20                               	leaq	32(%rcx,%rax), %rcx
1000020df:	48 f7 d8                                     	negq	%rax
1000020e2:	66 0f 38 dc d9                               	aesenc	%xmm1, %xmm3
1000020e7:	66 0f ef e8                                  	pxor	%xmm0, %xmm5
1000020eb:	66 0f ef f0                                  	pxor	%xmm0, %xmm6
1000020ef:	66 0f 38 dc e1                               	aesenc	%xmm1, %xmm4
1000020f4:	66 0f ef f8                                  	pxor	%xmm0, %xmm7
1000020f8:	48 83 c0 10                                  	addq	$16, %rax
1000020fc:	66 0f 38 dc e9                               	aesenc	%xmm1, %xmm5
100002101:	66 0f 38 dc f1                               	aesenc	%xmm1, %xmm6
100002106:	66 0f 38 dc f9                               	aesenc	%xmm1, %xmm7
10000210b:	0f 10 44 01 f0                               	movups	-16(%rcx,%rax), %xmm0
100002110:	eb 2c                                        	jmp	44
100002112:	66 66 66 66 66 2e 0f 1f 84 00 00 00 00 00    	nopw	%cs:(%rax,%rax)
100002120:	66 0f 38 dc d1                               	aesenc	%xmm1, %xmm2
100002125:	66 0f 38 dc d9                               	aesenc	%xmm1, %xmm3
10000212a:	66 0f 38 dc e1                               	aesenc	%xmm1, %xmm4
10000212f:	66 0f 38 dc e9                               	aesenc	%xmm1, %xmm5
100002134:	66 0f 38 dc f1                               	aesenc	%xmm1, %xmm6
100002139:	66 0f 38 dc f9                               	aesenc	%xmm1, %xmm7
10000213e:	0f 10 0c 01                                  	movups	(%rcx,%rax), %xmm1
100002142:	48 83 c0 20                                  	addq	$32, %rax
100002146:	66 0f 38 dc d0                               	aesenc	%xmm0, %xmm2
10000214b:	66 0f 38 dc d8                               	aesenc	%xmm0, %xmm3
100002150:	66 0f 38 dc e0                               	aesenc	%xmm0, %xmm4
100002155:	66 0f 38 dc e8                               	aesenc	%xmm0, %xmm5
10000215a:	66 0f 38 dc f0                               	aesenc	%xmm0, %xmm6
10000215f:	66 0f 38 dc f8                               	aesenc	%xmm0, %xmm7
100002164:	0f 10 44 01 f0                               	movups	-16(%rcx,%rax), %xmm0
100002169:	75 b5                                        	jne	-75
10000216b:	66 0f 38 dc d1                               	aesenc	%xmm1, %xmm2
100002170:	66 0f 38 dc d9                               	aesenc	%xmm1, %xmm3
100002175:	66 0f 38 dc e1                               	aesenc	%xmm1, %xmm4
10000217a:	66 0f 38 dc e9                               	aesenc	%xmm1, %xmm5
10000217f:	66 0f 38 dc f1                               	aesenc	%xmm1, %xmm6
100002184:	66 0f 38 dc f9                               	aesenc	%xmm1, %xmm7
100002189:	66 0f 38 dd d0                               	aesenclast	%xmm0, %xmm2
10000218e:	66 0f 38 dd d8                               	aesenclast	%xmm0, %xmm3
100002193:	66 0f 38 dd e0                               	aesenclast	%xmm0, %xmm4
100002198:	66 0f 38 dd e8                               	aesenclast	%xmm0, %xmm5
10000219d:	66 0f 38 dd f0                               	aesenclast	%xmm0, %xmm6
1000021a2:	66 0f 38 dd f8                               	aesenclast	%xmm0, %xmm7
1000021a7:	f3                                           	rep
1000021a8:	c3                                           	retq
1000021a9:	0f 1f 80 00 00 00 00                         	nopl	(%rax)

_aesni_decrypt6:
1000021b0:	0f 10 01                                     	movups	(%rcx), %xmm0
1000021b3:	c1 e0 04                                     	shll	$4, %eax
1000021b6:	0f 10 49 10                                  	movups	16(%rcx), %xmm1
1000021ba:	0f 57 d0                                     	xorps	%xmm0, %xmm2
1000021bd:	66 0f ef d8                                  	pxor	%xmm0, %xmm3
1000021c1:	66 0f ef e0                                  	pxor	%xmm0, %xmm4
1000021c5:	66 0f 38 de d1                               	aesdec	%xmm1, %xmm2
1000021ca:	48 8d 4c 01 20                               	leaq	32(%rcx,%rax), %rcx
1000021cf:	48 f7 d8                                     	negq	%rax
1000021d2:	66 0f 38 de d9                               	aesdec	%xmm1, %xmm3
1000021d7:	66 0f ef e8                                  	pxor	%xmm0, %xmm5
1000021db:	66 0f ef f0                                  	pxor	%xmm0, %xmm6
1000021df:	66 0f 38 de e1                               	aesdec	%xmm1, %xmm4
1000021e4:	66 0f ef f8                                  	pxor	%xmm0, %xmm7
1000021e8:	48 83 c0 10                                  	addq	$16, %rax
1000021ec:	66 0f 38 de e9                               	aesdec	%xmm1, %xmm5
1000021f1:	66 0f 38 de f1                               	aesdec	%xmm1, %xmm6
1000021f6:	66 0f 38 de f9                               	aesdec	%xmm1, %xmm7
1000021fb:	0f 10 44 01 f0                               	movups	-16(%rcx,%rax), %xmm0
100002200:	eb 2c                                        	jmp	44
100002202:	66 66 66 66 66 2e 0f 1f 84 00 00 00 00 00    	nopw	%cs:(%rax,%rax)
100002210:	66 0f 38 de d1                               	aesdec	%xmm1, %xmm2
100002215:	66 0f 38 de d9                               	aesdec	%xmm1, %xmm3
10000221a:	66 0f 38 de e1                               	aesdec	%xmm1, %xmm4
10000221f:	66 0f 38 de e9                               	aesdec	%xmm1, %xmm5
100002224:	66 0f 38 de f1                               	aesdec	%xmm1, %xmm6
100002229:	66 0f 38 de f9                               	aesdec	%xmm1, %xmm7
10000222e:	0f 10 0c 01                                  	movups	(%rcx,%rax), %xmm1
100002232:	48 83 c0 20                                  	addq	$32, %rax
100002236:	66 0f 38 de d0                               	aesdec	%xmm0, %xmm2
10000223b:	66 0f 38 de d8                               	aesdec	%xmm0, %xmm3
100002240:	66 0f 38 de e0                               	aesdec	%xmm0, %xmm4
100002245:	66 0f 38 de e8                               	aesdec	%xmm0, %xmm5
10000224a:	66 0f 38 de f0                               	aesdec	%xmm0, %xmm6
10000224f:	66 0f 38 de f8                               	aesdec	%xmm0, %xmm7
100002254:	0f 10 44 01 f0                               	movups	-16(%rcx,%rax), %xmm0
100002259:	75 b5                                        	jne	-75
10000225b:	66 0f 38 de d1                               	aesdec	%xmm1, %xmm2
100002260:	66 0f 38 de d9                               	aesdec	%xmm1, %xmm3
100002265:	66 0f 38 de e1                               	aesdec	%xmm1, %xmm4
10000226a:	66 0f 38 de e9                               	aesdec	%xmm1, %xmm5
10000226f:	66 0f 38 de f1                               	aesdec	%xmm1, %xmm6
100002274:	66 0f 38 de f9                               	aesdec	%xmm1, %xmm7
100002279:	66 0f 38 df d0                               	aesdeclast	%xmm0, %xmm2
10000227e:	66 0f 38 df d8                               	aesdeclast	%xmm0, %xmm3
100002283:	66 0f 38 df e0                               	aesdeclast	%xmm0, %xmm4
100002288:	66 0f 38 df e8                               	aesdeclast	%xmm0, %xmm5
10000228d:	66 0f 38 df f0                               	aesdeclast	%xmm0, %xmm6
100002292:	66 0f 38 df f8                               	aesdeclast	%xmm0, %xmm7
100002297:	f3                                           	rep
100002298:	c3                                           	retq
100002299:	0f 1f 80 00 00 00 00                         	nopl	(%rax)

_aesni_encrypt8:
1000022a0:	0f 10 01                                     	movups	(%rcx), %xmm0
1000022a3:	c1 e0 04                                     	shll	$4, %eax
1000022a6:	0f 10 49 10                                  	movups	16(%rcx), %xmm1
1000022aa:	0f 57 d0                                     	xorps	%xmm0, %xmm2
1000022ad:	0f 57 d8                                     	xorps	%xmm0, %xmm3
1000022b0:	66 0f ef e0                                  	pxor	%xmm0, %xmm4
1000022b4:	66 0f ef e8                                  	pxor	%xmm0, %xmm5
1000022b8:	66 0f ef f0                                  	pxor	%xmm0, %xmm6
1000022bc:	48 8d 4c 01 20                               	leaq	32(%rcx,%rax), %rcx
1000022c1:	48 f7 d8                                     	negq	%rax
1000022c4:	66 0f 38 dc d1                               	aesenc	%xmm1, %xmm2
1000022c9:	48 83 c0 10                                  	addq	$16, %rax
1000022cd:	66 0f ef f8                                  	pxor	%xmm0, %xmm7
1000022d1:	66 0f 38 dc d9                               	aesenc	%xmm1, %xmm3
1000022d6:	66 44 0f ef c0                               	pxor	%xmm0, %xmm8
1000022db:	66 44 0f ef c8                               	pxor	%xmm0, %xmm9
1000022e0:	66 0f 38 dc e1                               	aesenc	%xmm1, %xmm4
1000022e5:	66 0f 38 dc e9                               	aesenc	%xmm1, %xmm5
1000022ea:	66 0f 38 dc f1                               	aesenc	%xmm1, %xmm6
1000022ef:	66 0f 38 dc f9                               	aesenc	%xmm1, %xmm7
1000022f4:	66 44 0f 38 dc c1                            	aesenc	%xmm1, %xmm8
1000022fa:	66 44 0f 38 dc c9                            	aesenc	%xmm1, %xmm9
100002300:	0f 10 44 01 f0                               	movups	-16(%rcx,%rax), %xmm0
100002305:	eb 33                                        	jmp	51
100002307:	66 0f 1f 84 00 00 00 00 00                   	nopw	(%rax,%rax)
100002310:	66 0f 38 dc d1                               	aesenc	%xmm1, %xmm2
100002315:	66 0f 38 dc d9                               	aesenc	%xmm1, %xmm3
10000231a:	66 0f 38 dc e1                               	aesenc	%xmm1, %xmm4
10000231f:	66 0f 38 dc e9                               	aesenc	%xmm1, %xmm5
100002324:	66 0f 38 dc f1                               	aesenc	%xmm1, %xmm6
100002329:	66 0f 38 dc f9                               	aesenc	%xmm1, %xmm7
10000232e:	66 44 0f 38 dc c1                            	aesenc	%xmm1, %xmm8
100002334:	66 44 0f 38 dc c9                            	aesenc	%xmm1, %xmm9
10000233a:	0f 10 0c 01                                  	movups	(%rcx,%rax), %xmm1
10000233e:	48 83 c0 20                                  	addq	$32, %rax
100002342:	66 0f 38 dc d0                               	aesenc	%xmm0, %xmm2
100002347:	66 0f 38 dc d8                               	aesenc	%xmm0, %xmm3
10000234c:	66 0f 38 dc e0                               	aesenc	%xmm0, %xmm4
100002351:	66 0f 38 dc e8                               	aesenc	%xmm0, %xmm5
100002356:	66 0f 38 dc f0                               	aesenc	%xmm0, %xmm6
10000235b:	66 0f 38 dc f8                               	aesenc	%xmm0, %xmm7
100002360:	66 44 0f 38 dc c0                            	aesenc	%xmm0, %xmm8
100002366:	66 44 0f 38 dc c8                            	aesenc	%xmm0, %xmm9
10000236c:	0f 10 44 01 f0                               	movups	-16(%rcx,%rax), %xmm0
100002371:	75 9d                                        	jne	-99
100002373:	66 0f 38 dc d1                               	aesenc	%xmm1, %xmm2
100002378:	66 0f 38 dc d9                               	aesenc	%xmm1, %xmm3
10000237d:	66 0f 38 dc e1                               	aesenc	%xmm1, %xmm4
100002382:	66 0f 38 dc e9                               	aesenc	%xmm1, %xmm5
100002387:	66 0f 38 dc f1                               	aesenc	%xmm1, %xmm6
10000238c:	66 0f 38 dc f9                               	aesenc	%xmm1, %xmm7
100002391:	66 44 0f 38 dc c1                            	aesenc	%xmm1, %xmm8
100002397:	66 44 0f 38 dc c9                            	aesenc	%xmm1, %xmm9
10000239d:	66 0f 38 dd d0                               	aesenclast	%xmm0, %xmm2
1000023a2:	66 0f 38 dd d8                               	aesenclast	%xmm0, %xmm3
1000023a7:	66 0f 38 dd e0                               	aesenclast	%xmm0, %xmm4
1000023ac:	66 0f 38 dd e8                               	aesenclast	%xmm0, %xmm5
1000023b1:	66 0f 38 dd f0                               	aesenclast	%xmm0, %xmm6
1000023b6:	66 0f 38 dd f8                               	aesenclast	%xmm0, %xmm7
1000023bb:	66 44 0f 38 dd c0                            	aesenclast	%xmm0, %xmm8
1000023c1:	66 44 0f 38 dd c8                            	aesenclast	%xmm0, %xmm9
1000023c7:	f3                                           	rep
1000023c8:	c3                                           	retq
1000023c9:	0f 1f 80 00 00 00 00                         	nopl	(%rax)

_aesni_decrypt8:
1000023d0:	0f 10 01                                     	movups	(%rcx), %xmm0
1000023d3:	c1 e0 04                                     	shll	$4, %eax
1000023d6:	0f 10 49 10                                  	movups	16(%rcx), %xmm1
1000023da:	0f 57 d0                                     	xorps	%xmm0, %xmm2
1000023dd:	0f 57 d8                                     	xorps	%xmm0, %xmm3
1000023e0:	66 0f ef e0                                  	pxor	%xmm0, %xmm4
1000023e4:	66 0f ef e8                                  	pxor	%xmm0, %xmm5
1000023e8:	66 0f ef f0                                  	pxor	%xmm0, %xmm6
1000023ec:	48 8d 4c 01 20                               	leaq	32(%rcx,%rax), %rcx
1000023f1:	48 f7 d8                                     	negq	%rax
1000023f4:	66 0f 38 de d1                               	aesdec	%xmm1, %xmm2
1000023f9:	48 83 c0 10                                  	addq	$16, %rax
1000023fd:	66 0f ef f8                                  	pxor	%xmm0, %xmm7
100002401:	66 0f 38 de d9                               	aesdec	%xmm1, %xmm3
100002406:	66 44 0f ef c0                               	pxor	%xmm0, %xmm8
10000240b:	66 44 0f ef c8                               	pxor	%xmm0, %xmm9
100002410:	66 0f 38 de e1                               	aesdec	%xmm1, %xmm4
100002415:	66 0f 38 de e9                               	aesdec	%xmm1, %xmm5
10000241a:	66 0f 38 de f1                               	aesdec	%xmm1, %xmm6
10000241f:	66 0f 38 de f9                               	aesdec	%xmm1, %xmm7
100002424:	66 44 0f 38 de c1                            	aesdec	%xmm1, %xmm8
10000242a:	66 44 0f 38 de c9                            	aesdec	%xmm1, %xmm9
100002430:	0f 10 44 01 f0                               	movups	-16(%rcx,%rax), %xmm0
100002435:	eb 33                                        	jmp	51
100002437:	66 0f 1f 84 00 00 00 00 00                   	nopw	(%rax,%rax)
100002440:	66 0f 38 de d1                               	aesdec	%xmm1, %xmm2
100002445:	66 0f 38 de d9                               	aesdec	%xmm1, %xmm3
10000244a:	66 0f 38 de e1                               	aesdec	%xmm1, %xmm4
10000244f:	66 0f 38 de e9                               	aesdec	%xmm1, %xmm5
100002454:	66 0f 38 de f1                               	aesdec	%xmm1, %xmm6
100002459:	66 0f 38 de f9                               	aesdec	%xmm1, %xmm7
10000245e:	66 44 0f 38 de c1                            	aesdec	%xmm1, %xmm8
100002464:	66 44 0f 38 de c9                            	aesdec	%xmm1, %xmm9
10000246a:	0f 10 0c 01                                  	movups	(%rcx,%rax), %xmm1
10000246e:	48 83 c0 20                                  	addq	$32, %rax
100002472:	66 0f 38 de d0                               	aesdec	%xmm0, %xmm2
100002477:	66 0f 38 de d8                               	aesdec	%xmm0, %xmm3
10000247c:	66 0f 38 de e0                               	aesdec	%xmm0, %xmm4
100002481:	66 0f 38 de e8                               	aesdec	%xmm0, %xmm5
100002486:	66 0f 38 de f0                               	aesdec	%xmm0, %xmm6
10000248b:	66 0f 38 de f8                               	aesdec	%xmm0, %xmm7
100002490:	66 44 0f 38 de c0                            	aesdec	%xmm0, %xmm8
100002496:	66 44 0f 38 de c8                            	aesdec	%xmm0, %xmm9
10000249c:	0f 10 44 01 f0                               	movups	-16(%rcx,%rax), %xmm0
1000024a1:	75 9d                                        	jne	-99
1000024a3:	66 0f 38 de d1                               	aesdec	%xmm1, %xmm2
1000024a8:	66 0f 38 de d9                               	aesdec	%xmm1, %xmm3
1000024ad:	66 0f 38 de e1                               	aesdec	%xmm1, %xmm4
1000024b2:	66 0f 38 de e9                               	aesdec	%xmm1, %xmm5
1000024b7:	66 0f 38 de f1                               	aesdec	%xmm1, %xmm6
1000024bc:	66 0f 38 de f9                               	aesdec	%xmm1, %xmm7
1000024c1:	66 44 0f 38 de c1                            	aesdec	%xmm1, %xmm8
1000024c7:	66 44 0f 38 de c9                            	aesdec	%xmm1, %xmm9
1000024cd:	66 0f 38 df d0                               	aesdeclast	%xmm0, %xmm2
1000024d2:	66 0f 38 df d8                               	aesdeclast	%xmm0, %xmm3
1000024d7:	66 0f 38 df e0                               	aesdeclast	%xmm0, %xmm4
1000024dc:	66 0f 38 df e8                               	aesdeclast	%xmm0, %xmm5
1000024e1:	66 0f 38 df f0                               	aesdeclast	%xmm0, %xmm6
1000024e6:	66 0f 38 df f8                               	aesdeclast	%xmm0, %xmm7
1000024eb:	66 44 0f 38 df c0                            	aesdeclast	%xmm0, %xmm8
1000024f1:	66 44 0f 38 df c8                            	aesdeclast	%xmm0, %xmm9
1000024f7:	f3                                           	rep
1000024f8:	c3                                           	retq
1000024f9:	0f 1f 80 00 00 00 00                         	nopl	(%rax)

_aesni_ecb_encrypt:
100002500:	48 83 e2 f0                                  	andq	$-16, %rdx
100002504:	0f 84 92 04 00 00                            	je	1170
10000250a:	8b 81 f0 00 00 00                            	movl	240(%rcx), %eax
100002510:	0f 10 01                                     	movups	(%rcx), %xmm0
100002513:	49 89 cb                                     	movq	%rcx, %r11
100002516:	41 89 c2                                     	movl	%eax, %r10d
100002519:	45 85 c0                                     	testl	%r8d, %r8d
10000251c:	0f 84 4e 02 00 00                            	je	590
100002522:	48 81 fa 80 00 00 00                         	cmpq	$128, %rdx
100002529:	0f 82 e8 00 00 00                            	jb	232
10000252f:	f3 0f 6f 17                                  	movdqu	(%rdi), %xmm2
100002533:	f3 0f 6f 5f 10                               	movdqu	16(%rdi), %xmm3
100002538:	f3 0f 6f 67 20                               	movdqu	32(%rdi), %xmm4
10000253d:	f3 0f 6f 6f 30                               	movdqu	48(%rdi), %xmm5
100002542:	f3 0f 6f 77 40                               	movdqu	64(%rdi), %xmm6
100002547:	f3 0f 6f 7f 50                               	movdqu	80(%rdi), %xmm7
10000254c:	f3 44 0f 6f 47 60                            	movdqu	96(%rdi), %xmm8
100002552:	f3 44 0f 6f 4f 70                            	movdqu	112(%rdi), %xmm9
100002558:	48 8d bf 80 00 00 00                         	leaq	128(%rdi), %rdi
10000255f:	48 81 ea 80 00 00 00                         	subq	$128, %rdx
100002566:	eb 66                                        	jmp	102
100002568:	0f 1f 84 00 00 00 00 00                      	nopl	(%rax,%rax)
100002570:	0f 11 16                                     	movups	%xmm2, (%rsi)
100002573:	4c 89 d9                                     	movq	%r11, %rcx
100002576:	f3 0f 6f 17                                  	movdqu	(%rdi), %xmm2
10000257a:	44 89 d0                                     	movl	%r10d, %eax
10000257d:	0f 11 5e 10                                  	movups	%xmm3, 16(%rsi)
100002581:	f3 0f 6f 5f 10                               	movdqu	16(%rdi), %xmm3
100002586:	0f 11 66 20                                  	movups	%xmm4, 32(%rsi)
10000258a:	f3 0f 6f 67 20                               	movdqu	32(%rdi), %xmm4
10000258f:	0f 11 6e 30                                  	movups	%xmm5, 48(%rsi)
100002593:	f3 0f 6f 6f 30                               	movdqu	48(%rdi), %xmm5
100002598:	0f 11 76 40                                  	movups	%xmm6, 64(%rsi)
10000259c:	f3 0f 6f 77 40                               	movdqu	64(%rdi), %xmm6
1000025a1:	0f 11 7e 50                                  	movups	%xmm7, 80(%rsi)
1000025a5:	f3 0f 6f 7f 50                               	movdqu	80(%rdi), %xmm7
1000025aa:	44 0f 11 46 60                               	movups	%xmm8, 96(%rsi)
1000025af:	f3 44 0f 6f 47 60                            	movdqu	96(%rdi), %xmm8
1000025b5:	44 0f 11 4e 70                               	movups	%xmm9, 112(%rsi)
1000025ba:	48 8d b6 80 00 00 00                         	leaq	128(%rsi), %rsi
1000025c1:	f3 44 0f 6f 4f 70                            	movdqu	112(%rdi), %xmm9
1000025c7:	48 8d bf 80 00 00 00                         	leaq	128(%rdi), %rdi
1000025ce:	e8 cd fc ff ff                               	callq	-819
1000025d3:	48 81 ea 80 00 00 00                         	subq	$128, %rdx
1000025da:	73 94                                        	jae	-108
1000025dc:	0f 11 16                                     	movups	%xmm2, (%rsi)
1000025df:	4c 89 d9                                     	movq	%r11, %rcx
1000025e2:	0f 11 5e 10                                  	movups	%xmm3, 16(%rsi)
1000025e6:	44 89 d0                                     	movl	%r10d, %eax
1000025e9:	0f 11 66 20                                  	movups	%xmm4, 32(%rsi)
1000025ed:	0f 11 6e 30                                  	movups	%xmm5, 48(%rsi)
1000025f1:	0f 11 76 40                                  	movups	%xmm6, 64(%rsi)
1000025f5:	0f 11 7e 50                                  	movups	%xmm7, 80(%rsi)
1000025f9:	44 0f 11 46 60                               	movups	%xmm8, 96(%rsi)
1000025fe:	44 0f 11 4e 70                               	movups	%xmm9, 112(%rsi)
100002603:	48 8d b6 80 00 00 00                         	leaq	128(%rsi), %rsi
10000260a:	48 81 c2 80 00 00 00                         	addq	$128, %rdx
100002611:	0f 84 85 03 00 00                            	je	901
100002617:	0f 10 17                                     	movups	(%rdi), %xmm2
10000261a:	48 83 fa 20                                  	cmpq	$32, %rdx
10000261e:	72 70                                        	jb	112
100002620:	0f 10 5f 10                                  	movups	16(%rdi), %xmm3
100002624:	0f 84 96 00 00 00                            	je	150
10000262a:	0f 10 67 20                                  	movups	32(%rdi), %xmm4
10000262e:	48 83 fa 40                                  	cmpq	$64, %rdx
100002632:	0f 82 a8 00 00 00                            	jb	168
100002638:	0f 10 6f 30                                  	movups	48(%rdi), %xmm5
10000263c:	0f 84 be 00 00 00                            	je	190
100002642:	0f 10 77 40                                  	movups	64(%rdi), %xmm6
100002646:	48 83 fa 60                                  	cmpq	$96, %rdx
10000264a:	0f 82 d0 00 00 00                            	jb	208
100002650:	0f 10 7f 50                                  	movups	80(%rdi), %xmm7
100002654:	0f 84 e6 00 00 00                            	je	230
10000265a:	f3 44 0f 6f 47 60                            	movdqu	96(%rdi), %xmm8
100002660:	e8 3b fc ff ff                               	callq	-965
100002665:	0f 11 16                                     	movups	%xmm2, (%rsi)
100002668:	0f 11 5e 10                                  	movups	%xmm3, 16(%rsi)
10000266c:	0f 11 66 20                                  	movups	%xmm4, 32(%rsi)
100002670:	0f 11 6e 30                                  	movups	%xmm5, 48(%rsi)
100002674:	0f 11 76 40                                  	movups	%xmm6, 64(%rsi)
100002678:	0f 11 7e 50                                  	movups	%xmm7, 80(%rsi)
10000267c:	44 0f 11 46 60                               	movups	%xmm8, 96(%rsi)
100002681:	e9 16 03 00 00                               	jmp	790
100002686:	66 2e 0f 1f 84 00 00 00 00 00                	nopw	%cs:(%rax,%rax)
100002690:	0f 10 01                                     	movups	(%rcx), %xmm0
100002693:	0f 10 49 10                                  	movups	16(%rcx), %xmm1
100002697:	48 8d 49 20                                  	leaq	32(%rcx), %rcx
10000269b:	0f 57 d0                                     	xorps	%xmm0, %xmm2
10000269e:	66 0f 38 dc d1                               	aesenc	%xmm1, %xmm2
1000026a3:	ff c8                                        	decl	%eax
1000026a5:	0f 10 09                                     	movups	(%rcx), %xmm1
1000026a8:	48 8d 49 10                                  	leaq	16(%rcx), %rcx
1000026ac:	75 f0                                        	jne	-16
1000026ae:	66 0f 38 dd d1                               	aesenclast	%xmm1, %xmm2
1000026b3:	0f 11 16                                     	movups	%xmm2, (%rsi)
1000026b6:	e9 e1 02 00 00                               	jmp	737
1000026bb:	0f 1f 44 00 00                               	nopl	(%rax,%rax)
1000026c0:	e8 3b f7 ff ff                               	callq	-2245
1000026c5:	0f 11 16                                     	movups	%xmm2, (%rsi)
1000026c8:	0f 11 5e 10                                  	movups	%xmm3, 16(%rsi)
1000026cc:	e9 cb 02 00 00                               	jmp	715
1000026d1:	66 66 66 66 66 66 2e 0f 1f 84 00 00 00 00 00 	nopw	%cs:(%rax,%rax)
1000026e0:	e8 db f7 ff ff                               	callq	-2085
1000026e5:	0f 11 16                                     	movups	%xmm2, (%rsi)
1000026e8:	0f 11 5e 10                                  	movups	%xmm3, 16(%rsi)
1000026ec:	0f 11 66 20                                  	movups	%xmm4, 32(%rsi)
1000026f0:	e9 a7 02 00 00                               	jmp	679
1000026f5:	66 66 2e 0f 1f 84 00 00 00 00 00             	nopw	%cs:(%rax,%rax)
100002700:	e8 9b f8 ff ff                               	callq	-1893
100002705:	0f 11 16                                     	movups	%xmm2, (%rsi)
100002708:	0f 11 5e 10                                  	movups	%xmm3, 16(%rsi)
10000270c:	0f 11 66 20                                  	movups	%xmm4, 32(%rsi)
100002710:	0f 11 6e 30                                  	movups	%xmm5, 48(%rsi)
100002714:	e9 83 02 00 00                               	jmp	643
100002719:	0f 1f 80 00 00 00 00                         	nopl	(%rax)
100002720:	0f 57 ff                                     	xorps	%xmm7, %xmm7
100002723:	e8 98 f9 ff ff                               	callq	-1640
100002728:	0f 11 16                                     	movups	%xmm2, (%rsi)
10000272b:	0f 11 5e 10                                  	movups	%xmm3, 16(%rsi)
10000272f:	0f 11 66 20                                  	movups	%xmm4, 32(%rsi)
100002733:	0f 11 6e 30                                  	movups	%xmm5, 48(%rsi)
100002737:	0f 11 76 40                                  	movups	%xmm6, 64(%rsi)
10000273b:	e9 5c 02 00 00                               	jmp	604
100002740:	e8 7b f9 ff ff                               	callq	-1669
100002745:	0f 11 16                                     	movups	%xmm2, (%rsi)
100002748:	0f 11 5e 10                                  	movups	%xmm3, 16(%rsi)
10000274c:	0f 11 66 20                                  	movups	%xmm4, 32(%rsi)
100002750:	0f 11 6e 30                                  	movups	%xmm5, 48(%rsi)
100002754:	0f 11 76 40                                  	movups	%xmm6, 64(%rsi)
100002758:	0f 11 7e 50                                  	movups	%xmm7, 80(%rsi)
10000275c:	e9 3b 02 00 00                               	jmp	571
100002761:	66 66 66 66 66 66 2e 0f 1f 84 00 00 00 00 00 	nopw	%cs:(%rax,%rax)
100002770:	48 81 fa 80 00 00 00                         	cmpq	$128, %rdx
100002777:	0f 82 ee 00 00 00                            	jb	238
10000277d:	f3 0f 6f 17                                  	movdqu	(%rdi), %xmm2
100002781:	f3 0f 6f 5f 10                               	movdqu	16(%rdi), %xmm3
100002786:	f3 0f 6f 67 20                               	movdqu	32(%rdi), %xmm4
10000278b:	f3 0f 6f 6f 30                               	movdqu	48(%rdi), %xmm5
100002790:	f3 0f 6f 77 40                               	movdqu	64(%rdi), %xmm6
100002795:	f3 0f 6f 7f 50                               	movdqu	80(%rdi), %xmm7
10000279a:	f3 44 0f 6f 47 60                            	movdqu	96(%rdi), %xmm8
1000027a0:	f3 44 0f 6f 4f 70                            	movdqu	112(%rdi), %xmm9
1000027a6:	48 8d bf 80 00 00 00                         	leaq	128(%rdi), %rdi
1000027ad:	48 81 ea 80 00 00 00                         	subq	$128, %rdx
1000027b4:	eb 68                                        	jmp	104
1000027b6:	66 2e 0f 1f 84 00 00 00 00 00                	nopw	%cs:(%rax,%rax)
1000027c0:	0f 11 16                                     	movups	%xmm2, (%rsi)
1000027c3:	4c 89 d9                                     	movq	%r11, %rcx
1000027c6:	f3 0f 6f 17                                  	movdqu	(%rdi), %xmm2
1000027ca:	44 89 d0                                     	movl	%r10d, %eax
1000027cd:	0f 11 5e 10                                  	movups	%xmm3, 16(%rsi)
1000027d1:	f3 0f 6f 5f 10                               	movdqu	16(%rdi), %xmm3
1000027d6:	0f 11 66 20                                  	movups	%xmm4, 32(%rsi)
1000027da:	f3 0f 6f 67 20                               	movdqu	32(%rdi), %xmm4
1000027df:	0f 11 6e 30                                  	movups	%xmm5, 48(%rsi)
1000027e3:	f3 0f 6f 6f 30                               	movdqu	48(%rdi), %xmm5
1000027e8:	0f 11 76 40                                  	movups	%xmm6, 64(%rsi)
1000027ec:	f3 0f 6f 77 40                               	movdqu	64(%rdi), %xmm6
1000027f1:	0f 11 7e 50                                  	movups	%xmm7, 80(%rsi)
1000027f5:	f3 0f 6f 7f 50                               	movdqu	80(%rdi), %xmm7
1000027fa:	44 0f 11 46 60                               	movups	%xmm8, 96(%rsi)
1000027ff:	f3 44 0f 6f 47 60                            	movdqu	96(%rdi), %xmm8
100002805:	44 0f 11 4e 70                               	movups	%xmm9, 112(%rsi)
10000280a:	48 8d b6 80 00 00 00                         	leaq	128(%rsi), %rsi
100002811:	f3 44 0f 6f 4f 70                            	movdqu	112(%rdi), %xmm9
100002817:	48 8d bf 80 00 00 00                         	leaq	128(%rdi), %rdi
10000281e:	e8 ad fb ff ff                               	callq	-1107
100002823:	41 0f 10 03                                  	movups	(%r11), %xmm0
100002827:	48 81 ea 80 00 00 00                         	subq	$128, %rdx
10000282e:	73 90                                        	jae	-112
100002830:	0f 11 16                                     	movups	%xmm2, (%rsi)
100002833:	4c 89 d9                                     	movq	%r11, %rcx
100002836:	0f 11 5e 10                                  	movups	%xmm3, 16(%rsi)
10000283a:	44 89 d0                                     	movl	%r10d, %eax
10000283d:	0f 11 66 20                                  	movups	%xmm4, 32(%rsi)
100002841:	0f 11 6e 30                                  	movups	%xmm5, 48(%rsi)
100002845:	0f 11 76 40                                  	movups	%xmm6, 64(%rsi)
100002849:	0f 11 7e 50                                  	movups	%xmm7, 80(%rsi)
10000284d:	44 0f 11 46 60                               	movups	%xmm8, 96(%rsi)
100002852:	44 0f 11 4e 70                               	movups	%xmm9, 112(%rsi)
100002857:	48 8d b6 80 00 00 00                         	leaq	128(%rsi), %rsi
10000285e:	48 81 c2 80 00 00 00                         	addq	$128, %rdx
100002865:	0f 84 31 01 00 00                            	je	305
10000286b:	0f 10 17                                     	movups	(%rdi), %xmm2
10000286e:	48 83 fa 20                                  	cmpq	$32, %rdx
100002872:	72 6c                                        	jb	108
100002874:	0f 10 5f 10                                  	movups	16(%rdi), %xmm3
100002878:	0f 84 92 00 00 00                            	je	146
10000287e:	0f 10 67 20                                  	movups	32(%rdi), %xmm4
100002882:	48 83 fa 40                                  	cmpq	$64, %rdx
100002886:	0f 82 94 00 00 00                            	jb	148
10000288c:	0f 10 6f 30                                  	movups	48(%rdi), %xmm5
100002890:	0f 84 aa 00 00 00                            	je	170
100002896:	0f 10 77 40                                  	movups	64(%rdi), %xmm6
10000289a:	48 83 fa 60                                  	cmpq	$96, %rdx
10000289e:	0f 82 bc 00 00 00                            	jb	188
1000028a4:	0f 10 7f 50                                  	movups	80(%rdi), %xmm7
1000028a8:	0f 84 d2 00 00 00                            	je	210
1000028ae:	44 0f 10 47 60                               	movups	96(%rdi), %xmm8
1000028b3:	0f 10 01                                     	movups	(%rcx), %xmm0
1000028b6:	e8 15 fb ff ff                               	callq	-1259
1000028bb:	0f 11 16                                     	movups	%xmm2, (%rsi)
1000028be:	0f 11 5e 10                                  	movups	%xmm3, 16(%rsi)
1000028c2:	0f 11 66 20                                  	movups	%xmm4, 32(%rsi)
1000028c6:	0f 11 6e 30                                  	movups	%xmm5, 48(%rsi)
1000028ca:	0f 11 76 40                                  	movups	%xmm6, 64(%rsi)
1000028ce:	0f 11 7e 50                                  	movups	%xmm7, 80(%rsi)
1000028d2:	44 0f 11 46 60                               	movups	%xmm8, 96(%rsi)
1000028d7:	e9 c0 00 00 00                               	jmp	192
1000028dc:	0f 1f 40 00                                  	nopl	(%rax)
1000028e0:	0f 10 01                                     	movups	(%rcx), %xmm0
1000028e3:	0f 10 49 10                                  	movups	16(%rcx), %xmm1
1000028e7:	48 8d 49 20                                  	leaq	32(%rcx), %rcx
1000028eb:	0f 57 d0                                     	xorps	%xmm0, %xmm2
1000028ee:	66 0f 38 de d1                               	aesdec	%xmm1, %xmm2
1000028f3:	ff c8                                        	decl	%eax
1000028f5:	0f 10 09                                     	movups	(%rcx), %xmm1
1000028f8:	48 8d 49 10                                  	leaq	16(%rcx), %rcx
1000028fc:	75 f0                                        	jne	-16
1000028fe:	66 0f 38 df d1                               	aesdeclast	%xmm1, %xmm2
100002903:	0f 11 16                                     	movups	%xmm2, (%rsi)
100002906:	e9 91 00 00 00                               	jmp	145
10000290b:	0f 1f 44 00 00                               	nopl	(%rax,%rax)
100002910:	e8 4b f5 ff ff                               	callq	-2741
100002915:	0f 11 16                                     	movups	%xmm2, (%rsi)
100002918:	0f 11 5e 10                                  	movups	%xmm3, 16(%rsi)
10000291c:	eb 7e                                        	jmp	126
10000291e:	66 90                                        	nop
100002920:	e8 0b f6 ff ff                               	callq	-2549
100002925:	0f 11 16                                     	movups	%xmm2, (%rsi)
100002928:	0f 11 5e 10                                  	movups	%xmm3, 16(%rsi)
10000292c:	0f 11 66 20                                  	movups	%xmm4, 32(%rsi)
100002930:	eb 6a                                        	jmp	106
100002932:	66 66 66 66 66 2e 0f 1f 84 00 00 00 00 00    	nopw	%cs:(%rax,%rax)
100002940:	e8 eb f6 ff ff                               	callq	-2325
100002945:	0f 11 16                                     	movups	%xmm2, (%rsi)
100002948:	0f 11 5e 10                                  	movups	%xmm3, 16(%rsi)
10000294c:	0f 11 66 20                                  	movups	%xmm4, 32(%rsi)
100002950:	0f 11 6e 30                                  	movups	%xmm5, 48(%rsi)
100002954:	eb 46                                        	jmp	70
100002956:	66 2e 0f 1f 84 00 00 00 00 00                	nopw	%cs:(%rax,%rax)
100002960:	0f 57 ff                                     	xorps	%xmm7, %xmm7
100002963:	e8 48 f8 ff ff                               	callq	-1976
100002968:	0f 11 16                                     	movups	%xmm2, (%rsi)
10000296b:	0f 11 5e 10                                  	movups	%xmm3, 16(%rsi)
10000296f:	0f 11 66 20                                  	movups	%xmm4, 32(%rsi)
100002973:	0f 11 6e 30                                  	movups	%xmm5, 48(%rsi)
100002977:	0f 11 76 40                                  	movups	%xmm6, 64(%rsi)
10000297b:	eb 1f                                        	jmp	31
10000297d:	0f 1f 00                                     	nopl	(%rax)
100002980:	e8 2b f8 ff ff                               	callq	-2005
100002985:	0f 11 16                                     	movups	%xmm2, (%rsi)
100002988:	0f 11 5e 10                                  	movups	%xmm3, 16(%rsi)
10000298c:	0f 11 66 20                                  	movups	%xmm4, 32(%rsi)
100002990:	0f 11 6e 30                                  	movups	%xmm5, 48(%rsi)
100002994:	0f 11 76 40                                  	movups	%xmm6, 64(%rsi)
100002998:	0f 11 7e 50                                  	movups	%xmm7, 80(%rsi)
10000299c:	f3                                           	rep
10000299d:	c3                                           	retq
10000299e:	66 90                                        	nop

_aesni_ccm64_encrypt_blocks:
1000029a0:	8b 81 f0 00 00 00                            	movl	240(%rcx), %eax
1000029a6:	f3 41 0f 6f 30                               	movdqu	(%r8), %xmm6
1000029ab:	66 44 0f 6f 0d ec 23 00 00                   	movdqa	9196(%rip), %xmm9
1000029b4:	66 0f 6f 3d c4 23 00 00                      	movdqa	9156(%rip), %xmm7
1000029bc:	c1 e0 04                                     	shll	$4, %eax
1000029bf:	41 ba 10 00 00 00                            	movl	$16, %r10d
1000029c5:	4c 8d 19                                     	leaq	(%rcx), %r11
1000029c8:	f3 41 0f 6f 19                               	movdqu	(%r9), %xmm3
1000029cd:	66 0f 6f d6                                  	movdqa	%xmm6, %xmm2
1000029d1:	48 8d 4c 01 20                               	leaq	32(%rcx,%rax), %rcx
1000029d6:	66 0f 38 00 f7                               	pshufb	%xmm7, %xmm6
1000029db:	49 29 c2                                     	subq	%rax, %r10
1000029de:	eb 00                                        	jmp	0
1000029e0:	41 0f 10 03                                  	movups	(%r11), %xmm0
1000029e4:	4c 89 d0                                     	movq	%r10, %rax
1000029e7:	44 0f 10 07                                  	movups	(%rdi), %xmm8
1000029eb:	0f 57 d0                                     	xorps	%xmm0, %xmm2
1000029ee:	41 0f 10 4b 10                               	movups	16(%r11), %xmm1
1000029f3:	41 0f 57 c0                                  	xorps	%xmm8, %xmm0
1000029f7:	0f 57 d8                                     	xorps	%xmm0, %xmm3
1000029fa:	41 0f 10 43 20                               	movups	32(%r11), %xmm0
1000029ff:	66 0f 38 dc d1                               	aesenc	%xmm1, %xmm2
100002a04:	66 0f 38 dc d9                               	aesenc	%xmm1, %xmm3
100002a09:	0f 10 0c 01                                  	movups	(%rcx,%rax), %xmm1
100002a0d:	48 83 c0 20                                  	addq	$32, %rax
100002a11:	66 0f 38 dc d0                               	aesenc	%xmm0, %xmm2
100002a16:	66 0f 38 dc d8                               	aesenc	%xmm0, %xmm3
100002a1b:	0f 10 44 01 f0                               	movups	-16(%rcx,%rax), %xmm0
100002a20:	75 dd                                        	jne	-35
100002a22:	66 0f 38 dc d1                               	aesenc	%xmm1, %xmm2
100002a27:	66 0f 38 dc d9                               	aesenc	%xmm1, %xmm3
100002a2c:	66 41 0f d4 f1                               	paddq	%xmm9, %xmm6
100002a31:	48 ff ca                                     	decq	%rdx
100002a34:	66 0f 38 dd d0                               	aesenclast	%xmm0, %xmm2
100002a39:	66 0f 38 dd d8                               	aesenclast	%xmm0, %xmm3
100002a3e:	48 8d 7f 10                                  	leaq	16(%rdi), %rdi
100002a42:	44 0f 57 c2                                  	xorps	%xmm2, %xmm8
100002a46:	66 0f 6f d6                                  	movdqa	%xmm6, %xmm2
100002a4a:	44 0f 11 06                                  	movups	%xmm8, (%rsi)
100002a4e:	66 0f 38 00 d7                               	pshufb	%xmm7, %xmm2
100002a53:	48 8d 76 10                                  	leaq	16(%rsi), %rsi
100002a57:	75 87                                        	jne	-121
100002a59:	41 0f 11 19                                  	movups	%xmm3, (%r9)
100002a5d:	f3                                           	rep
100002a5e:	c3                                           	retq
100002a5f:	90                                           	nop

_aesni_ccm64_decrypt_blocks:
100002a60:	8b 81 f0 00 00 00                            	movl	240(%rcx), %eax
100002a66:	41 0f 10 30                                  	movups	(%r8), %xmm6
100002a6a:	f3 41 0f 6f 19                               	movdqu	(%r9), %xmm3
100002a6f:	66 44 0f 6f 0d 28 23 00 00                   	movdqa	9000(%rip), %xmm9
100002a78:	66 0f 6f 3d 00 23 00 00                      	movdqa	8960(%rip), %xmm7
100002a80:	0f 28 d6                                     	movaps	%xmm6, %xmm2
100002a83:	41 89 c2                                     	movl	%eax, %r10d
100002a86:	49 89 cb                                     	movq	%rcx, %r11
100002a89:	66 0f 38 00 f7                               	pshufb	%xmm7, %xmm6
100002a8e:	0f 10 01                                     	movups	(%rcx), %xmm0
100002a91:	0f 10 49 10                                  	movups	16(%rcx), %xmm1
100002a95:	48 8d 49 20                                  	leaq	32(%rcx), %rcx
100002a99:	0f 57 d0                                     	xorps	%xmm0, %xmm2
100002a9c:	66 0f 38 dc d1                               	aesenc	%xmm1, %xmm2
100002aa1:	ff c8                                        	decl	%eax
100002aa3:	0f 10 09                                     	movups	(%rcx), %xmm1
100002aa6:	48 8d 49 10                                  	leaq	16(%rcx), %rcx
100002aaa:	75 f0                                        	jne	-16
100002aac:	66 0f 38 dd d1                               	aesenclast	%xmm1, %xmm2
100002ab1:	41 c1 e2 04                                  	shll	$4, %r10d
100002ab5:	b8 10 00 00 00                               	movl	$16, %eax
100002aba:	44 0f 10 07                                  	movups	(%rdi), %xmm8
100002abe:	66 41 0f d4 f1                               	paddq	%xmm9, %xmm6
100002ac3:	48 8d 7f 10                                  	leaq	16(%rdi), %rdi
100002ac7:	4c 29 d0                                     	subq	%r10, %rax
100002aca:	4b 8d 4c 13 20                               	leaq	32(%r11,%r10), %rcx
100002acf:	49 89 c2                                     	movq	%rax, %r10
100002ad2:	eb 0c                                        	jmp	12
100002ad4:	66 66 66 2e 0f 1f 84 00 00 00 00 00          	nopw	%cs:(%rax,%rax)
100002ae0:	44 0f 57 c2                                  	xorps	%xmm2, %xmm8
100002ae4:	66 0f 6f d6                                  	movdqa	%xmm6, %xmm2
100002ae8:	44 0f 11 06                                  	movups	%xmm8, (%rsi)
100002aec:	48 8d 76 10                                  	leaq	16(%rsi), %rsi
100002af0:	66 0f 38 00 d7                               	pshufb	%xmm7, %xmm2
100002af5:	48 83 ea 01                                  	subq	$1, %rdx
100002af9:	74 75                                        	je	117
100002afb:	41 0f 10 03                                  	movups	(%r11), %xmm0
100002aff:	4c 89 d0                                     	movq	%r10, %rax
100002b02:	41 0f 10 4b 10                               	movups	16(%r11), %xmm1
100002b07:	44 0f 57 c0                                  	xorps	%xmm0, %xmm8
100002b0b:	0f 57 d0                                     	xorps	%xmm0, %xmm2
100002b0e:	41 0f 57 d8                                  	xorps	%xmm8, %xmm3
100002b12:	41 0f 10 43 20                               	movups	32(%r11), %xmm0
100002b17:	eb 07                                        	jmp	7
100002b19:	0f 1f 80 00 00 00 00                         	nopl	(%rax)
100002b20:	66 0f 38 dc d1                               	aesenc	%xmm1, %xmm2
100002b25:	66 0f 38 dc d9                               	aesenc	%xmm1, %xmm3
100002b2a:	0f 10 0c 01                                  	movups	(%rcx,%rax), %xmm1
100002b2e:	48 83 c0 20                                  	addq	$32, %rax
100002b32:	66 0f 38 dc d0                               	aesenc	%xmm0, %xmm2
100002b37:	66 0f 38 dc d8                               	aesenc	%xmm0, %xmm3
100002b3c:	0f 10 44 01 f0                               	movups	-16(%rcx,%rax), %xmm0
100002b41:	75 dd                                        	jne	-35
100002b43:	44 0f 10 07                                  	movups	(%rdi), %xmm8
100002b47:	66 41 0f d4 f1                               	paddq	%xmm9, %xmm6
100002b4c:	66 0f 38 dc d1                               	aesenc	%xmm1, %xmm2
100002b51:	66 0f 38 dc d9                               	aesenc	%xmm1, %xmm3
100002b56:	66 0f 38 dd d0                               	aesenclast	%xmm0, %xmm2
100002b5b:	66 0f 38 dd d8                               	aesenclast	%xmm0, %xmm3
100002b60:	48 8d 7f 10                                  	leaq	16(%rdi), %rdi
100002b64:	e9 77 ff ff ff                               	jmp	-137
100002b69:	0f 1f 80 00 00 00 00                         	nopl	(%rax)
100002b70:	41 8b 83 f0 00 00 00                         	movl	240(%r11), %eax
100002b77:	41 0f 10 03                                  	movups	(%r11), %xmm0
100002b7b:	41 0f 10 4b 10                               	movups	16(%r11), %xmm1
100002b80:	44 0f 57 c0                                  	xorps	%xmm0, %xmm8
100002b84:	4d 8d 5b 20                                  	leaq	32(%r11), %r11
100002b88:	41 0f 57 d8                                  	xorps	%xmm8, %xmm3
100002b8c:	66 0f 38 dc d9                               	aesenc	%xmm1, %xmm3
100002b91:	ff c8                                        	decl	%eax
100002b93:	41 0f 10 0b                                  	movups	(%r11), %xmm1
100002b97:	4d 8d 5b 10                                  	leaq	16(%r11), %r11
100002b9b:	75 ef                                        	jne	-17
100002b9d:	66 0f 38 dd d9                               	aesenclast	%xmm1, %xmm3
100002ba2:	41 0f 11 19                                  	movups	%xmm3, (%r9)
100002ba6:	f3                                           	rep
100002ba7:	c3                                           	retq
100002ba8:	0f 1f 84 00 00 00 00 00                      	nopl	(%rax,%rax)

_aesni_ctr32_encrypt_blocks:
100002bb0:	48 8d 04 24                                  	leaq	(%rsp), %rax
100002bb4:	55                                           	pushq	%rbp
100002bb5:	48 81 ec 80 00 00 00                         	subq	$128, %rsp
100002bbc:	48 83 e4 f0                                  	andq	$-16, %rsp
100002bc0:	48 8d 68 f8                                  	leaq	-8(%rax), %rbp
100002bc4:	48 83 fa 01                                  	cmpq	$1, %rdx
100002bc8:	0f 84 72 08 00 00                            	je	2162
100002bce:	f3 41 0f 6f 10                               	movdqu	(%r8), %xmm2
100002bd3:	f3 0f 6f 01                                  	movdqu	(%rcx), %xmm0
100002bd7:	45 8b 40 0c                                  	movl	12(%r8), %r8d
100002bdb:	66 0f ef d0                                  	pxor	%xmm0, %xmm2
100002bdf:	44 8b 59 0c                                  	movl	12(%rcx), %r11d
100002be3:	66 0f 7f 14 24                               	movdqa	%xmm2, (%rsp)
100002be8:	41 0f c8                                     	bswapl	%r8d
100002beb:	66 0f 6f da                                  	movdqa	%xmm2, %xmm3
100002bef:	66 0f 6f e2                                  	movdqa	%xmm2, %xmm4
100002bf3:	66 0f 6f ea                                  	movdqa	%xmm2, %xmm5
100002bf7:	66 0f 7f 54 24 40                            	movdqa	%xmm2, 64(%rsp)
100002bfd:	66 0f 7f 54 24 50                            	movdqa	%xmm2, 80(%rsp)
100002c03:	66 0f 7f 54 24 60                            	movdqa	%xmm2, 96(%rsp)
100002c09:	49 89 d2                                     	movq	%rdx, %r10
100002c0c:	66 0f 7f 54 24 70                            	movdqa	%xmm2, 112(%rsp)
100002c12:	49 8d 40 01                                  	leaq	1(%r8), %rax
100002c16:	49 8d 50 02                                  	leaq	2(%r8), %rdx
100002c1a:	0f c8                                        	bswapl	%eax
100002c1c:	0f ca                                        	bswapl	%edx
100002c1e:	44 31 d8                                     	xorl	%r11d, %eax
100002c21:	44 31 da                                     	xorl	%r11d, %edx
100002c24:	66 0f 3a 22 d8 03                            	pinsrd	$3, %eax, %xmm3
100002c2a:	49 8d 40 03                                  	leaq	3(%r8), %rax
100002c2e:	66 0f 7f 5c 24 10                            	movdqa	%xmm3, 16(%rsp)
100002c34:	66 0f 3a 22 e2 03                            	pinsrd	$3, %edx, %xmm4
100002c3a:	0f c8                                        	bswapl	%eax
100002c3c:	4c 89 d2                                     	movq	%r10, %rdx
100002c3f:	4d 8d 50 04                                  	leaq	4(%r8), %r10
100002c43:	66 0f 7f 64 24 20                            	movdqa	%xmm4, 32(%rsp)
100002c49:	44 31 d8                                     	xorl	%r11d, %eax
100002c4c:	41 0f ca                                     	bswapl	%r10d
100002c4f:	66 0f 3a 22 e8 03                            	pinsrd	$3, %eax, %xmm5
100002c55:	45 31 da                                     	xorl	%r11d, %r10d
100002c58:	66 0f 7f 6c 24 30                            	movdqa	%xmm5, 48(%rsp)
100002c5e:	4d 8d 48 05                                  	leaq	5(%r8), %r9
100002c62:	44 89 54 24 4c                               	movl	%r10d, 76(%rsp)
100002c67:	41 0f c9                                     	bswapl	%r9d
100002c6a:	4d 8d 50 06                                  	leaq	6(%r8), %r10
100002c6e:	8b 81 f0 00 00 00                            	movl	240(%rcx), %eax
100002c74:	45 31 d9                                     	xorl	%r11d, %r9d
100002c77:	41 0f ca                                     	bswapl	%r10d
100002c7a:	44 89 4c 24 5c                               	movl	%r9d, 92(%rsp)
100002c7f:	45 31 da                                     	xorl	%r11d, %r10d
100002c82:	4d 8d 48 07                                  	leaq	7(%r8), %r9
100002c86:	44 89 54 24 6c                               	movl	%r10d, 108(%rsp)
100002c8b:	41 0f c9                                     	bswapl	%r9d
100002c8e:	44 8b 15 8f 24 00 00                         	movl	9359(%rip), %r10d
100002c95:	45 31 d9                                     	xorl	%r11d, %r9d
100002c98:	41 81 e2 00 00 40 04                         	andl	$71303168, %r10d
100002c9f:	44 89 4c 24 7c                               	movl	%r9d, 124(%rsp)
100002ca4:	0f 10 49 10                                  	movups	16(%rcx), %xmm1
100002ca8:	66 0f 6f 74 24 40                            	movdqa	64(%rsp), %xmm6
100002cae:	66 0f 6f 7c 24 50                            	movdqa	80(%rsp), %xmm7
100002cb4:	48 83 fa 08                                  	cmpq	$8, %rdx
100002cb8:	0f 82 bc 05 00 00                            	jb	1468
100002cbe:	48 83 ea 06                                  	subq	$6, %rdx
100002cc2:	41 81 fa 00 00 40 00                         	cmpl	$4194304, %r10d
100002cc9:	74 15                                        	je	21
100002ccb:	48 8d 89 80 00 00 00                         	leaq	128(%rcx), %rcx
100002cd2:	48 83 ea 02                                  	subq	$2, %rdx
100002cd6:	e9 85 01 00 00                               	jmp	389
100002cdb:	0f 1f 44 00 00                               	nopl	(%rax,%rax)
100002ce0:	c1 e0 04                                     	shll	$4, %eax
100002ce3:	41 ba 30 00 00 00                            	movl	$48, %r10d
100002ce9:	41 0f cb                                     	bswapl	%r11d
100002cec:	48 8d 4c 01 20                               	leaq	32(%rcx,%rax), %rcx
100002cf1:	49 29 c2                                     	subq	%rax, %r10
100002cf4:	eb 0a                                        	jmp	10
100002cf6:	66 2e 0f 1f 84 00 00 00 00 00                	nopw	%cs:(%rax,%rax)
100002d00:	41 83 c0 06                                  	addl	$6, %r8d
100002d04:	42 0f 10 44 11 d0                            	movups	-48(%rcx,%r10), %xmm0
100002d0a:	66 0f 38 dc d1                               	aesenc	%xmm1, %xmm2
100002d0f:	44 89 c0                                     	movl	%r8d, %eax
100002d12:	44 31 d8                                     	xorl	%r11d, %eax
100002d15:	66 0f 38 dc d9                               	aesenc	%xmm1, %xmm3
100002d1a:	0f 38 f1 44 24 0c                            	movbel	%eax, 12(%rsp)
100002d20:	41 8d 40 01                                  	leal	1(%r8), %eax
100002d24:	66 0f 38 dc e1                               	aesenc	%xmm1, %xmm4
100002d29:	44 31 d8                                     	xorl	%r11d, %eax
100002d2c:	0f 38 f1 44 24 1c                            	movbel	%eax, 28(%rsp)
100002d32:	66 0f 38 dc e9                               	aesenc	%xmm1, %xmm5
100002d37:	41 8d 40 02                                  	leal	2(%r8), %eax
100002d3b:	44 31 d8                                     	xorl	%r11d, %eax
100002d3e:	66 0f 38 dc f1                               	aesenc	%xmm1, %xmm6
100002d43:	0f 38 f1 44 24 2c                            	movbel	%eax, 44(%rsp)
100002d49:	41 8d 40 03                                  	leal	3(%r8), %eax
100002d4d:	66 0f 38 dc f9                               	aesenc	%xmm1, %xmm7
100002d52:	42 0f 10 4c 11 e0                            	movups	-32(%rcx,%r10), %xmm1
100002d58:	44 31 d8                                     	xorl	%r11d, %eax
100002d5b:	66 0f 38 dc d0                               	aesenc	%xmm0, %xmm2
100002d60:	0f 38 f1 44 24 3c                            	movbel	%eax, 60(%rsp)
100002d66:	41 8d 40 04                                  	leal	4(%r8), %eax
100002d6a:	66 0f 38 dc d8                               	aesenc	%xmm0, %xmm3
100002d6f:	44 31 d8                                     	xorl	%r11d, %eax
100002d72:	0f 38 f1 44 24 4c                            	movbel	%eax, 76(%rsp)
100002d78:	66 0f 38 dc e0                               	aesenc	%xmm0, %xmm4
100002d7d:	41 8d 40 05                                  	leal	5(%r8), %eax
100002d81:	44 31 d8                                     	xorl	%r11d, %eax
100002d84:	66 0f 38 dc e8                               	aesenc	%xmm0, %xmm5
100002d89:	0f 38 f1 44 24 5c                            	movbel	%eax, 92(%rsp)
100002d8f:	4c 89 d0                                     	movq	%r10, %rax
100002d92:	66 0f 38 dc f0                               	aesenc	%xmm0, %xmm6
100002d97:	66 0f 38 dc f8                               	aesenc	%xmm0, %xmm7
100002d9c:	42 0f 10 44 11 f0                            	movups	-16(%rcx,%r10), %xmm0
100002da2:	e8 79 f3 ff ff                               	callq	-3207
100002da7:	f3 44 0f 6f 07                               	movdqu	(%rdi), %xmm8
100002dac:	f3 44 0f 6f 4f 10                            	movdqu	16(%rdi), %xmm9
100002db2:	f3 44 0f 6f 57 20                            	movdqu	32(%rdi), %xmm10
100002db8:	f3 44 0f 6f 5f 30                            	movdqu	48(%rdi), %xmm11
100002dbe:	f3 44 0f 6f 67 40                            	movdqu	64(%rdi), %xmm12
100002dc4:	f3 44 0f 6f 6f 50                            	movdqu	80(%rdi), %xmm13
100002dca:	48 8d 7f 60                                  	leaq	96(%rdi), %rdi
100002dce:	42 0f 10 4c 11 c0                            	movups	-64(%rcx,%r10), %xmm1
100002dd4:	66 44 0f ef c2                               	pxor	%xmm2, %xmm8
100002dd9:	0f 28 14 24                                  	movaps	(%rsp), %xmm2
100002ddd:	66 44 0f ef cb                               	pxor	%xmm3, %xmm9
100002de2:	0f 28 5c 24 10                               	movaps	16(%rsp), %xmm3
100002de7:	66 44 0f ef d4                               	pxor	%xmm4, %xmm10
100002dec:	0f 28 64 24 20                               	movaps	32(%rsp), %xmm4
100002df1:	66 44 0f ef dd                               	pxor	%xmm5, %xmm11
100002df6:	0f 28 6c 24 30                               	movaps	48(%rsp), %xmm5
100002dfb:	66 44 0f ef e6                               	pxor	%xmm6, %xmm12
100002e00:	0f 28 74 24 40                               	movaps	64(%rsp), %xmm6
100002e05:	66 44 0f ef ef                               	pxor	%xmm7, %xmm13
100002e0a:	0f 28 7c 24 50                               	movaps	80(%rsp), %xmm7
100002e0f:	f3 44 0f 7f 06                               	movdqu	%xmm8, (%rsi)
100002e14:	f3 44 0f 7f 4e 10                            	movdqu	%xmm9, 16(%rsi)
100002e1a:	f3 44 0f 7f 56 20                            	movdqu	%xmm10, 32(%rsi)
100002e20:	f3 44 0f 7f 5e 30                            	movdqu	%xmm11, 48(%rsi)
100002e26:	f3 44 0f 7f 66 40                            	movdqu	%xmm12, 64(%rsi)
100002e2c:	f3 44 0f 7f 6e 50                            	movdqu	%xmm13, 80(%rsi)
100002e32:	48 8d 76 60                                  	leaq	96(%rsi), %rsi
100002e36:	48 83 ea 06                                  	subq	$6, %rdx
100002e3a:	0f 83 c0 fe ff ff                            	jae	-320
100002e40:	48 83 c2 06                                  	addq	$6, %rdx
100002e44:	0f 84 36 06 00 00                            	je	1590
100002e4a:	41 8d 42 d0                                  	leal	-48(%r10), %eax
100002e4e:	4a 8d 4c 11 b0                               	leaq	-80(%rcx,%r10), %rcx
100002e53:	f7 d8                                        	negl	%eax
100002e55:	c1 e8 04                                     	shrl	$4, %eax
100002e58:	e9 1d 04 00 00                               	jmp	1053
100002e5d:	0f 1f 00                                     	nopl	(%rax)
100002e60:	41 83 c0 08                                  	addl	$8, %r8d
100002e64:	66 44 0f 6f 44 24 60                         	movdqa	96(%rsp), %xmm8
100002e6b:	66 0f 38 dc d1                               	aesenc	%xmm1, %xmm2
100002e70:	45 89 c1                                     	movl	%r8d, %r9d
100002e73:	66 44 0f 6f 4c 24 70                         	movdqa	112(%rsp), %xmm9
100002e7a:	66 0f 38 dc d9                               	aesenc	%xmm1, %xmm3
100002e7f:	41 0f c9                                     	bswapl	%r9d
100002e82:	0f 10 41 a0                                  	movups	-96(%rcx), %xmm0
100002e86:	66 0f 38 dc e1                               	aesenc	%xmm1, %xmm4
100002e8b:	45 31 d9                                     	xorl	%r11d, %r9d
100002e8e:	90                                           	nop
100002e8f:	66 0f 38 dc e9                               	aesenc	%xmm1, %xmm5
100002e94:	44 89 4c 24 0c                               	movl	%r9d, 12(%rsp)
100002e99:	4d 8d 48 01                                  	leaq	1(%r8), %r9
100002e9d:	66 0f 38 dc f1                               	aesenc	%xmm1, %xmm6
100002ea2:	66 0f 38 dc f9                               	aesenc	%xmm1, %xmm7
100002ea7:	66 44 0f 38 dc c1                            	aesenc	%xmm1, %xmm8
100002ead:	66 44 0f 38 dc c9                            	aesenc	%xmm1, %xmm9
100002eb3:	0f 10 49 b0                                  	movups	-80(%rcx), %xmm1
100002eb7:	41 0f c9                                     	bswapl	%r9d
100002eba:	66 0f 38 dc d0                               	aesenc	%xmm0, %xmm2
100002ebf:	66 0f 38 dc d8                               	aesenc	%xmm0, %xmm3
100002ec4:	45 31 d9                                     	xorl	%r11d, %r9d
100002ec7:	66 90                                        	nop
100002ec9:	66 0f 38 dc e0                               	aesenc	%xmm0, %xmm4
100002ece:	66 0f 38 dc e8                               	aesenc	%xmm0, %xmm5
100002ed3:	44 89 4c 24 1c                               	movl	%r9d, 28(%rsp)
100002ed8:	4d 8d 48 02                                  	leaq	2(%r8), %r9
100002edc:	66 0f 38 dc f0                               	aesenc	%xmm0, %xmm6
100002ee1:	66 0f 38 dc f8                               	aesenc	%xmm0, %xmm7
100002ee6:	66 44 0f 38 dc c0                            	aesenc	%xmm0, %xmm8
100002eec:	66 44 0f 38 dc c8                            	aesenc	%xmm0, %xmm9
100002ef2:	0f 10 41 c0                                  	movups	-64(%rcx), %xmm0
100002ef6:	41 0f c9                                     	bswapl	%r9d
100002ef9:	66 0f 38 dc d1                               	aesenc	%xmm1, %xmm2
100002efe:	66 0f 38 dc d9                               	aesenc	%xmm1, %xmm3
100002f03:	45 31 d9                                     	xorl	%r11d, %r9d
100002f06:	66 90                                        	nop
100002f08:	66 0f 38 dc e1                               	aesenc	%xmm1, %xmm4
100002f0d:	66 0f 38 dc e9                               	aesenc	%xmm1, %xmm5
100002f12:	44 89 4c 24 2c                               	movl	%r9d, 44(%rsp)
100002f17:	4d 8d 48 03                                  	leaq	3(%r8), %r9
100002f1b:	66 0f 38 dc f1                               	aesenc	%xmm1, %xmm6
100002f20:	66 0f 38 dc f9                               	aesenc	%xmm1, %xmm7
100002f25:	66 44 0f 38 dc c1                            	aesenc	%xmm1, %xmm8
100002f2b:	66 44 0f 38 dc c9                            	aesenc	%xmm1, %xmm9
100002f31:	0f 10 49 d0                                  	movups	-48(%rcx), %xmm1
100002f35:	41 0f c9                                     	bswapl	%r9d
100002f38:	66 0f 38 dc d0                               	aesenc	%xmm0, %xmm2
100002f3d:	66 0f 38 dc d8                               	aesenc	%xmm0, %xmm3
100002f42:	45 31 d9                                     	xorl	%r11d, %r9d
100002f45:	66 90                                        	nop
100002f47:	66 0f 38 dc e0                               	aesenc	%xmm0, %xmm4
100002f4c:	66 0f 38 dc e8                               	aesenc	%xmm0, %xmm5
100002f51:	44 89 4c 24 3c                               	movl	%r9d, 60(%rsp)
100002f56:	4d 8d 48 04                                  	leaq	4(%r8), %r9
100002f5a:	66 0f 38 dc f0                               	aesenc	%xmm0, %xmm6
100002f5f:	66 0f 38 dc f8                               	aesenc	%xmm0, %xmm7
100002f64:	66 44 0f 38 dc c0                            	aesenc	%xmm0, %xmm8
100002f6a:	66 44 0f 38 dc c8                            	aesenc	%xmm0, %xmm9
100002f70:	0f 10 41 e0                                  	movups	-32(%rcx), %xmm0
100002f74:	41 0f c9                                     	bswapl	%r9d
100002f77:	66 0f 38 dc d1                               	aesenc	%xmm1, %xmm2
100002f7c:	66 0f 38 dc d9                               	aesenc	%xmm1, %xmm3
100002f81:	45 31 d9                                     	xorl	%r11d, %r9d
100002f84:	66 90                                        	nop
100002f86:	66 0f 38 dc e1                               	aesenc	%xmm1, %xmm4
100002f8b:	66 0f 38 dc e9                               	aesenc	%xmm1, %xmm5
100002f90:	44 89 4c 24 4c                               	movl	%r9d, 76(%rsp)
100002f95:	4d 8d 48 05                                  	leaq	5(%r8), %r9
100002f99:	66 0f 38 dc f1                               	aesenc	%xmm1, %xmm6
100002f9e:	66 0f 38 dc f9                               	aesenc	%xmm1, %xmm7
100002fa3:	66 44 0f 38 dc c1                            	aesenc	%xmm1, %xmm8
100002fa9:	66 44 0f 38 dc c9                            	aesenc	%xmm1, %xmm9
100002faf:	0f 10 49 f0                                  	movups	-16(%rcx), %xmm1
100002fb3:	41 0f c9                                     	bswapl	%r9d
100002fb6:	66 0f 38 dc d0                               	aesenc	%xmm0, %xmm2
100002fbb:	66 0f 38 dc d8                               	aesenc	%xmm0, %xmm3
100002fc0:	45 31 d9                                     	xorl	%r11d, %r9d
100002fc3:	66 90                                        	nop
100002fc5:	66 0f 38 dc e0                               	aesenc	%xmm0, %xmm4
100002fca:	66 0f 38 dc e8                               	aesenc	%xmm0, %xmm5
100002fcf:	44 89 4c 24 5c                               	movl	%r9d, 92(%rsp)
100002fd4:	4d 8d 48 06                                  	leaq	6(%r8), %r9
100002fd8:	66 0f 38 dc f0                               	aesenc	%xmm0, %xmm6
100002fdd:	66 0f 38 dc f8                               	aesenc	%xmm0, %xmm7
100002fe2:	66 44 0f 38 dc c0                            	aesenc	%xmm0, %xmm8
100002fe8:	66 44 0f 38 dc c8                            	aesenc	%xmm0, %xmm9
100002fee:	0f 10 01                                     	movups	(%rcx), %xmm0
100002ff1:	41 0f c9                                     	bswapl	%r9d
100002ff4:	66 0f 38 dc d1                               	aesenc	%xmm1, %xmm2
100002ff9:	66 0f 38 dc d9                               	aesenc	%xmm1, %xmm3
100002ffe:	45 31 d9                                     	xorl	%r11d, %r9d
100003001:	66 90                                        	nop
100003003:	66 0f 38 dc e1                               	aesenc	%xmm1, %xmm4
100003008:	66 0f 38 dc e9                               	aesenc	%xmm1, %xmm5
10000300d:	44 89 4c 24 6c                               	movl	%r9d, 108(%rsp)
100003012:	4d 8d 48 07                                  	leaq	7(%r8), %r9
100003016:	66 0f 38 dc f1                               	aesenc	%xmm1, %xmm6
10000301b:	66 0f 38 dc f9                               	aesenc	%xmm1, %xmm7
100003020:	66 44 0f 38 dc c1                            	aesenc	%xmm1, %xmm8
100003026:	66 44 0f 38 dc c9                            	aesenc	%xmm1, %xmm9
10000302c:	0f 10 49 10                                  	movups	16(%rcx), %xmm1
100003030:	41 0f c9                                     	bswapl	%r9d
100003033:	66 0f 38 dc d0                               	aesenc	%xmm0, %xmm2
100003038:	66 0f 38 dc d8                               	aesenc	%xmm0, %xmm3
10000303d:	66 0f 38 dc e0                               	aesenc	%xmm0, %xmm4
100003042:	45 31 d9                                     	xorl	%r11d, %r9d
100003045:	f3 44 0f 6f 17                               	movdqu	(%rdi), %xmm10
10000304a:	66 0f 38 dc e8                               	aesenc	%xmm0, %xmm5
10000304f:	44 89 4c 24 7c                               	movl	%r9d, 124(%rsp)
100003054:	83 f8 0b                                     	cmpl	$11, %eax
100003057:	66 0f 38 dc f0                               	aesenc	%xmm0, %xmm6
10000305c:	66 0f 38 dc f8                               	aesenc	%xmm0, %xmm7
100003061:	66 44 0f 38 dc c0                            	aesenc	%xmm0, %xmm8
100003067:	66 44 0f 38 dc c8                            	aesenc	%xmm0, %xmm9
10000306d:	0f 10 41 20                                  	movups	32(%rcx), %xmm0
100003071:	0f 82 c9 00 00 00                            	jb	201
100003077:	66 0f 38 dc d1                               	aesenc	%xmm1, %xmm2
10000307c:	66 0f 38 dc d9                               	aesenc	%xmm1, %xmm3
100003081:	66 0f 38 dc e1                               	aesenc	%xmm1, %xmm4
100003086:	66 0f 38 dc e9                               	aesenc	%xmm1, %xmm5
10000308b:	66 0f 38 dc f1                               	aesenc	%xmm1, %xmm6
100003090:	66 0f 38 dc f9                               	aesenc	%xmm1, %xmm7
100003095:	66 44 0f 38 dc c1                            	aesenc	%xmm1, %xmm8
10000309b:	66 44 0f 38 dc c9                            	aesenc	%xmm1, %xmm9
1000030a1:	0f 10 49 30                                  	movups	48(%rcx), %xmm1
1000030a5:	66 0f 38 dc d0                               	aesenc	%xmm0, %xmm2
1000030aa:	66 0f 38 dc d8                               	aesenc	%xmm0, %xmm3
1000030af:	66 0f 38 dc e0                               	aesenc	%xmm0, %xmm4
1000030b4:	66 0f 38 dc e8                               	aesenc	%xmm0, %xmm5
1000030b9:	66 0f 38 dc f0                               	aesenc	%xmm0, %xmm6
1000030be:	66 0f 38 dc f8                               	aesenc	%xmm0, %xmm7
1000030c3:	66 44 0f 38 dc c0                            	aesenc	%xmm0, %xmm8
1000030c9:	66 44 0f 38 dc c8                            	aesenc	%xmm0, %xmm9
1000030cf:	0f 10 41 40                                  	movups	64(%rcx), %xmm0
1000030d3:	74 6b                                        	je	107
1000030d5:	66 0f 38 dc d1                               	aesenc	%xmm1, %xmm2
1000030da:	66 0f 38 dc d9                               	aesenc	%xmm1, %xmm3
1000030df:	66 0f 38 dc e1                               	aesenc	%xmm1, %xmm4
1000030e4:	66 0f 38 dc e9                               	aesenc	%xmm1, %xmm5
1000030e9:	66 0f 38 dc f1                               	aesenc	%xmm1, %xmm6
1000030ee:	66 0f 38 dc f9                               	aesenc	%xmm1, %xmm7
1000030f3:	66 44 0f 38 dc c1                            	aesenc	%xmm1, %xmm8
1000030f9:	66 44 0f 38 dc c9                            	aesenc	%xmm1, %xmm9
1000030ff:	0f 10 49 50                                  	movups	80(%rcx), %xmm1
100003103:	66 0f 38 dc d0                               	aesenc	%xmm0, %xmm2
100003108:	66 0f 38 dc d8                               	aesenc	%xmm0, %xmm3
10000310d:	66 0f 38 dc e0                               	aesenc	%xmm0, %xmm4
100003112:	66 0f 38 dc e8                               	aesenc	%xmm0, %xmm5
100003117:	66 0f 38 dc f0                               	aesenc	%xmm0, %xmm6
10000311c:	66 0f 38 dc f8                               	aesenc	%xmm0, %xmm7
100003121:	66 44 0f 38 dc c0                            	aesenc	%xmm0, %xmm8
100003127:	66 44 0f 38 dc c8                            	aesenc	%xmm0, %xmm9
10000312d:	0f 10 41 60                                  	movups	96(%rcx), %xmm0
100003131:	eb 0d                                        	jmp	13
100003133:	66 66 66 66 2e 0f 1f 84 00 00 00 00 00       	nopw	%cs:(%rax,%rax)
100003140:	f3 44 0f 6f 5f 10                            	movdqu	16(%rdi), %xmm11
100003146:	66 44 0f ef d0                               	pxor	%xmm0, %xmm10
10000314b:	f3 44 0f 6f 67 20                            	movdqu	32(%rdi), %xmm12
100003151:	66 44 0f ef d8                               	pxor	%xmm0, %xmm11
100003156:	f3 44 0f 6f 6f 30                            	movdqu	48(%rdi), %xmm13
10000315c:	66 44 0f ef e0                               	pxor	%xmm0, %xmm12
100003161:	f3 44 0f 6f 77 40                            	movdqu	64(%rdi), %xmm14
100003167:	66 44 0f ef e8                               	pxor	%xmm0, %xmm13
10000316c:	f3 44 0f 6f 7f 50                            	movdqu	80(%rdi), %xmm15
100003172:	66 44 0f ef f0                               	pxor	%xmm0, %xmm14
100003177:	66 44 0f ef f8                               	pxor	%xmm0, %xmm15
10000317c:	66 0f 38 dc d1                               	aesenc	%xmm1, %xmm2
100003181:	66 0f 38 dc d9                               	aesenc	%xmm1, %xmm3
100003186:	66 0f 38 dc e1                               	aesenc	%xmm1, %xmm4
10000318b:	66 0f 38 dc e9                               	aesenc	%xmm1, %xmm5
100003190:	66 0f 38 dc f1                               	aesenc	%xmm1, %xmm6
100003195:	66 0f 38 dc f9                               	aesenc	%xmm1, %xmm7
10000319a:	66 44 0f 38 dc c1                            	aesenc	%xmm1, %xmm8
1000031a0:	66 44 0f 38 dc c9                            	aesenc	%xmm1, %xmm9
1000031a6:	f3 0f 6f 4f 60                               	movdqu	96(%rdi), %xmm1
1000031ab:	48 8d bf 80 00 00 00                         	leaq	128(%rdi), %rdi
1000031b2:	66 41 0f 38 dd d2                            	aesenclast	%xmm10, %xmm2
1000031b8:	66 0f ef c8                                  	pxor	%xmm0, %xmm1
1000031bc:	f3 44 0f 6f 57 f0                            	movdqu	-16(%rdi), %xmm10
1000031c2:	66 41 0f 38 dd db                            	aesenclast	%xmm11, %xmm3
1000031c8:	66 44 0f ef d0                               	pxor	%xmm0, %xmm10
1000031cd:	66 44 0f 6f 1c 24                            	movdqa	(%rsp), %xmm11
1000031d3:	66 41 0f 38 dd e4                            	aesenclast	%xmm12, %xmm4
1000031d9:	66 41 0f 38 dd ed                            	aesenclast	%xmm13, %xmm5
1000031df:	66 44 0f 6f 64 24 10                         	movdqa	16(%rsp), %xmm12
1000031e6:	66 44 0f 6f 6c 24 20                         	movdqa	32(%rsp), %xmm13
1000031ed:	66 41 0f 38 dd f6                            	aesenclast	%xmm14, %xmm6
1000031f3:	66 41 0f 38 dd ff                            	aesenclast	%xmm15, %xmm7
1000031f9:	66 44 0f 6f 74 24 30                         	movdqa	48(%rsp), %xmm14
100003200:	66 44 0f 6f 7c 24 40                         	movdqa	64(%rsp), %xmm15
100003207:	66 44 0f 38 dd c1                            	aesenclast	%xmm1, %xmm8
10000320d:	66 0f 6f 44 24 50                            	movdqa	80(%rsp), %xmm0
100003213:	0f 10 49 90                                  	movups	-112(%rcx), %xmm1
100003217:	66 45 0f 38 dd ca                            	aesenclast	%xmm10, %xmm9
10000321d:	0f 11 16                                     	movups	%xmm2, (%rsi)
100003220:	66 41 0f 6f d3                               	movdqa	%xmm11, %xmm2
100003225:	0f 11 5e 10                                  	movups	%xmm3, 16(%rsi)
100003229:	66 41 0f 6f dc                               	movdqa	%xmm12, %xmm3
10000322e:	0f 11 66 20                                  	movups	%xmm4, 32(%rsi)
100003232:	66 41 0f 6f e5                               	movdqa	%xmm13, %xmm4
100003237:	0f 11 6e 30                                  	movups	%xmm5, 48(%rsi)
10000323b:	66 41 0f 6f ee                               	movdqa	%xmm14, %xmm5
100003240:	0f 11 76 40                                  	movups	%xmm6, 64(%rsi)
100003244:	66 41 0f 6f f7                               	movdqa	%xmm15, %xmm6
100003249:	0f 11 7e 50                                  	movups	%xmm7, 80(%rsi)
10000324d:	66 0f 6f f8                                  	movdqa	%xmm0, %xmm7
100003251:	44 0f 11 46 60                               	movups	%xmm8, 96(%rsi)
100003256:	44 0f 11 4e 70                               	movups	%xmm9, 112(%rsi)
10000325b:	48 8d b6 80 00 00 00                         	leaq	128(%rsi), %rsi
100003262:	48 83 ea 08                                  	subq	$8, %rdx
100003266:	0f 83 f4 fb ff ff                            	jae	-1036
10000326c:	48 83 c2 08                                  	addq	$8, %rdx
100003270:	0f 84 0a 02 00 00                            	je	522
100003276:	48 8d 49 80                                  	leaq	-128(%rcx), %rcx
10000327a:	48 8d 49 10                                  	leaq	16(%rcx), %rcx
10000327e:	48 83 fa 04                                  	cmpq	$4, %rdx
100003282:	0f 82 58 01 00 00                            	jb	344
100003288:	0f 84 d2 00 00 00                            	je	210
10000328e:	c1 e0 04                                     	shll	$4, %eax
100003291:	66 44 0f 6f 44 24 60                         	movdqa	96(%rsp), %xmm8
100003298:	66 45 0f ef c9                               	pxor	%xmm9, %xmm9
10000329d:	0f 10 41 10                                  	movups	16(%rcx), %xmm0
1000032a1:	66 0f 38 dc d1                               	aesenc	%xmm1, %xmm2
1000032a6:	66 0f 38 dc d9                               	aesenc	%xmm1, %xmm3
1000032ab:	48 8d 4c 01 10                               	leaq	16(%rcx,%rax), %rcx
1000032b0:	48 f7 d8                                     	negq	%rax
1000032b3:	66 0f 38 dc e1                               	aesenc	%xmm1, %xmm4
1000032b8:	48 83 c0 10                                  	addq	$16, %rax
1000032bc:	44 0f 10 17                                  	movups	(%rdi), %xmm10
1000032c0:	66 0f 38 dc e9                               	aesenc	%xmm1, %xmm5
1000032c5:	66 0f 38 dc f1                               	aesenc	%xmm1, %xmm6
1000032ca:	44 0f 10 5f 10                               	movups	16(%rdi), %xmm11
1000032cf:	44 0f 10 67 20                               	movups	32(%rdi), %xmm12
1000032d4:	66 0f 38 dc f9                               	aesenc	%xmm1, %xmm7
1000032d9:	66 44 0f 38 dc c1                            	aesenc	%xmm1, %xmm8
1000032df:	e8 56 f0 ff ff                               	callq	-4010
1000032e4:	f3 44 0f 6f 6f 30                            	movdqu	48(%rdi), %xmm13
1000032ea:	66 41 0f ef d2                               	pxor	%xmm10, %xmm2
1000032ef:	f3 44 0f 6f 57 40                            	movdqu	64(%rdi), %xmm10
1000032f5:	66 41 0f ef db                               	pxor	%xmm11, %xmm3
1000032fa:	f3 0f 7f 16                                  	movdqu	%xmm2, (%rsi)
1000032fe:	66 41 0f ef e4                               	pxor	%xmm12, %xmm4
100003303:	f3 0f 7f 5e 10                               	movdqu	%xmm3, 16(%rsi)
100003308:	66 41 0f ef ed                               	pxor	%xmm13, %xmm5
10000330d:	f3 0f 7f 66 20                               	movdqu	%xmm4, 32(%rsi)
100003312:	66 41 0f ef f2                               	pxor	%xmm10, %xmm6
100003317:	f3 0f 7f 6e 30                               	movdqu	%xmm5, 48(%rsi)
10000331c:	f3 0f 7f 76 40                               	movdqu	%xmm6, 64(%rsi)
100003321:	48 83 fa 06                                  	cmpq	$6, %rdx
100003325:	0f 82 55 01 00 00                            	jb	341
10000332b:	44 0f 10 5f 50                               	movups	80(%rdi), %xmm11
100003330:	41 0f 57 fb                                  	xorps	%xmm11, %xmm7
100003334:	0f 11 7e 50                                  	movups	%xmm7, 80(%rsi)
100003338:	0f 84 42 01 00 00                            	je	322
10000333e:	44 0f 10 67 60                               	movups	96(%rdi), %xmm12
100003343:	45 0f 57 c4                                  	xorps	%xmm12, %xmm8
100003347:	44 0f 11 46 60                               	movups	%xmm8, 96(%rsi)
10000334c:	e9 2f 01 00 00                               	jmp	303
100003351:	66 66 66 66 66 66 2e 0f 1f 84 00 00 00 00 00 	nopw	%cs:(%rax,%rax)
100003360:	66 0f 38 dc d1                               	aesenc	%xmm1, %xmm2
100003365:	48 8d 49 10                                  	leaq	16(%rcx), %rcx
100003369:	ff c8                                        	decl	%eax
10000336b:	66 0f 38 dc d9                               	aesenc	%xmm1, %xmm3
100003370:	66 0f 38 dc e1                               	aesenc	%xmm1, %xmm4
100003375:	66 0f 38 dc e9                               	aesenc	%xmm1, %xmm5
10000337a:	0f 10 09                                     	movups	(%rcx), %xmm1
10000337d:	75 e1                                        	jne	-31
10000337f:	66 0f 38 dd d1                               	aesenclast	%xmm1, %xmm2
100003384:	66 0f 38 dd d9                               	aesenclast	%xmm1, %xmm3
100003389:	44 0f 10 17                                  	movups	(%rdi), %xmm10
10000338d:	44 0f 10 5f 10                               	movups	16(%rdi), %xmm11
100003392:	66 0f 38 dd e1                               	aesenclast	%xmm1, %xmm4
100003397:	66 0f 38 dd e9                               	aesenclast	%xmm1, %xmm5
10000339c:	44 0f 10 67 20                               	movups	32(%rdi), %xmm12
1000033a1:	44 0f 10 6f 30                               	movups	48(%rdi), %xmm13
1000033a6:	41 0f 57 d2                                  	xorps	%xmm10, %xmm2
1000033aa:	0f 11 16                                     	movups	%xmm2, (%rsi)
1000033ad:	41 0f 57 db                                  	xorps	%xmm11, %xmm3
1000033b1:	0f 11 5e 10                                  	movups	%xmm3, 16(%rsi)
1000033b5:	66 41 0f ef e4                               	pxor	%xmm12, %xmm4
1000033ba:	f3 0f 7f 66 20                               	movdqu	%xmm4, 32(%rsi)
1000033bf:	66 41 0f ef ed                               	pxor	%xmm13, %xmm5
1000033c4:	f3 0f 7f 6e 30                               	movdqu	%xmm5, 48(%rsi)
1000033c9:	e9 b2 00 00 00                               	jmp	178
1000033ce:	66 66 66 66 66 66 2e 0f 1f 84 00 00 00 00 00 	nopw	%cs:(%rax,%rax)
1000033dd:	0f 1f 00                                     	nopl	(%rax)
1000033e0:	66 0f 38 dc d1                               	aesenc	%xmm1, %xmm2
1000033e5:	48 8d 49 10                                  	leaq	16(%rcx), %rcx
1000033e9:	ff c8                                        	decl	%eax
1000033eb:	66 0f 38 dc d9                               	aesenc	%xmm1, %xmm3
1000033f0:	66 0f 38 dc e1                               	aesenc	%xmm1, %xmm4
1000033f5:	0f 10 09                                     	movups	(%rcx), %xmm1
1000033f8:	75 e6                                        	jne	-26
1000033fa:	66 0f 38 dd d1                               	aesenclast	%xmm1, %xmm2
1000033ff:	66 0f 38 dd d9                               	aesenclast	%xmm1, %xmm3
100003404:	66 0f 38 dd e1                               	aesenclast	%xmm1, %xmm4
100003409:	44 0f 10 17                                  	movups	(%rdi), %xmm10
10000340d:	41 0f 57 d2                                  	xorps	%xmm10, %xmm2
100003411:	0f 11 16                                     	movups	%xmm2, (%rsi)
100003414:	48 83 fa 02                                  	cmpq	$2, %rdx
100003418:	72 66                                        	jb	102
10000341a:	44 0f 10 5f 10                               	movups	16(%rdi), %xmm11
10000341f:	41 0f 57 db                                  	xorps	%xmm11, %xmm3
100003423:	0f 11 5e 10                                  	movups	%xmm3, 16(%rsi)
100003427:	74 57                                        	je	87
100003429:	44 0f 10 67 20                               	movups	32(%rdi), %xmm12
10000342e:	41 0f 57 e4                                  	xorps	%xmm12, %xmm4
100003432:	0f 11 66 20                                  	movups	%xmm4, 32(%rsi)
100003436:	eb 48                                        	jmp	72
100003438:	0f 1f 84 00 00 00 00 00                      	nopl	(%rax,%rax)
100003440:	41 0f 10 10                                  	movups	(%r8), %xmm2
100003444:	44 0f 10 17                                  	movups	(%rdi), %xmm10
100003448:	8b 81 f0 00 00 00                            	movl	240(%rcx), %eax
10000344e:	0f 10 01                                     	movups	(%rcx), %xmm0
100003451:	0f 10 49 10                                  	movups	16(%rcx), %xmm1
100003455:	48 8d 49 20                                  	leaq	32(%rcx), %rcx
100003459:	0f 57 d0                                     	xorps	%xmm0, %xmm2
10000345c:	66 0f 38 dc d1                               	aesenc	%xmm1, %xmm2
100003461:	ff c8                                        	decl	%eax
100003463:	0f 10 09                                     	movups	(%rcx), %xmm1
100003466:	48 8d 49 10                                  	leaq	16(%rcx), %rcx
10000346a:	75 f0                                        	jne	-16
10000346c:	66 0f 38 dd d1                               	aesenclast	%xmm1, %xmm2
100003471:	41 0f 57 d2                                  	xorps	%xmm10, %xmm2
100003475:	0f 11 16                                     	movups	%xmm2, (%rsi)
100003478:	eb 06                                        	jmp	6
10000347a:	66 0f 1f 44 00 00                            	nopw	(%rax,%rax)
100003480:	48 8d 65 00                                  	leaq	(%rbp), %rsp
100003484:	5d                                           	popq	%rbp
100003485:	f3                                           	rep
100003486:	c3                                           	retq
100003487:	66 0f 1f 84 00 00 00 00 00                   	nopw	(%rax,%rax)

_aesni_xts_encrypt:
100003490:	48 8d 04 24                                  	leaq	(%rsp), %rax
100003494:	55                                           	pushq	%rbp
100003495:	48 83 ec 70                                  	subq	$112, %rsp
100003499:	48 83 e4 f0                                  	andq	$-16, %rsp
10000349d:	48 8d 68 f8                                  	leaq	-8(%rax), %rbp
1000034a1:	41 0f 10 11                                  	movups	(%r9), %xmm2
1000034a5:	41 8b 80 f0 00 00 00                         	movl	240(%r8), %eax
1000034ac:	44 8b 91 f0 00 00 00                         	movl	240(%rcx), %r10d
1000034b3:	41 0f 10 00                                  	movups	(%r8), %xmm0
1000034b7:	41 0f 10 48 10                               	movups	16(%r8), %xmm1
1000034bc:	4d 8d 40 20                                  	leaq	32(%r8), %r8
1000034c0:	0f 57 d0                                     	xorps	%xmm0, %xmm2
1000034c3:	66 0f 38 dc d1                               	aesenc	%xmm1, %xmm2
1000034c8:	ff c8                                        	decl	%eax
1000034ca:	41 0f 10 08                                  	movups	(%r8), %xmm1
1000034ce:	4d 8d 40 10                                  	leaq	16(%r8), %r8
1000034d2:	75 ef                                        	jne	-17
1000034d4:	66 0f 38 dd d1                               	aesenclast	%xmm1, %xmm2
1000034d9:	0f 10 01                                     	movups	(%rcx), %xmm0
1000034dc:	49 89 cb                                     	movq	%rcx, %r11
1000034df:	44 89 d0                                     	movl	%r10d, %eax
1000034e2:	41 c1 e2 04                                  	shll	$4, %r10d
1000034e6:	49 89 d1                                     	movq	%rdx, %r9
1000034e9:	48 83 e2 f0                                  	andq	$-16, %rdx
1000034ed:	42 0f 10 4c 11 10                            	movups	16(%rcx,%r10), %xmm1
1000034f3:	66 44 0f 6f 05 b4 18 00 00                   	movdqa	6324(%rip), %xmm8
1000034fc:	66 44 0f 6f fa                               	movdqa	%xmm2, %xmm15
100003501:	66 44 0f 70 ca 5f                            	pshufd	$95, %xmm2, %xmm9
100003507:	66 0f ef c8                                  	pxor	%xmm0, %xmm1
10000350b:	66 45 0f 6f f1                               	movdqa	%xmm9, %xmm14
100003510:	66 45 0f fe c9                               	paddd	%xmm9, %xmm9
100003515:	66 45 0f 6f d7                               	movdqa	%xmm15, %xmm10
10000351a:	66 41 0f 72 e6 1f                            	psrad	$31, %xmm14
100003520:	66 45 0f d4 ff                               	paddq	%xmm15, %xmm15
100003525:	66 45 0f db f0                               	pand	%xmm8, %xmm14
10000352a:	66 44 0f ef d0                               	pxor	%xmm0, %xmm10
10000352f:	66 45 0f ef fe                               	pxor	%xmm14, %xmm15
100003534:	66 45 0f 6f f1                               	movdqa	%xmm9, %xmm14
100003539:	66 45 0f fe c9                               	paddd	%xmm9, %xmm9
10000353e:	66 45 0f 6f df                               	movdqa	%xmm15, %xmm11
100003543:	66 41 0f 72 e6 1f                            	psrad	$31, %xmm14
100003549:	66 45 0f d4 ff                               	paddq	%xmm15, %xmm15
10000354e:	66 45 0f db f0                               	pand	%xmm8, %xmm14
100003553:	66 44 0f ef d8                               	pxor	%xmm0, %xmm11
100003558:	66 45 0f ef fe                               	pxor	%xmm14, %xmm15
10000355d:	66 45 0f 6f f1                               	movdqa	%xmm9, %xmm14
100003562:	66 45 0f fe c9                               	paddd	%xmm9, %xmm9
100003567:	66 45 0f 6f e7                               	movdqa	%xmm15, %xmm12
10000356c:	66 41 0f 72 e6 1f                            	psrad	$31, %xmm14
100003572:	66 45 0f d4 ff                               	paddq	%xmm15, %xmm15
100003577:	66 45 0f db f0                               	pand	%xmm8, %xmm14
10000357c:	66 44 0f ef e0                               	pxor	%xmm0, %xmm12
100003581:	66 45 0f ef fe                               	pxor	%xmm14, %xmm15
100003586:	66 45 0f 6f f1                               	movdqa	%xmm9, %xmm14
10000358b:	66 45 0f fe c9                               	paddd	%xmm9, %xmm9
100003590:	66 45 0f 6f ef                               	movdqa	%xmm15, %xmm13
100003595:	66 41 0f 72 e6 1f                            	psrad	$31, %xmm14
10000359b:	66 45 0f d4 ff                               	paddq	%xmm15, %xmm15
1000035a0:	66 45 0f db f0                               	pand	%xmm8, %xmm14
1000035a5:	66 44 0f ef e8                               	pxor	%xmm0, %xmm13
1000035aa:	66 45 0f ef fe                               	pxor	%xmm14, %xmm15
1000035af:	66 45 0f 6f f7                               	movdqa	%xmm15, %xmm14
1000035b4:	66 41 0f 72 e1 1f                            	psrad	$31, %xmm9
1000035ba:	66 45 0f d4 ff                               	paddq	%xmm15, %xmm15
1000035bf:	66 45 0f db c8                               	pand	%xmm8, %xmm9
1000035c4:	66 44 0f ef f0                               	pxor	%xmm0, %xmm14
1000035c9:	66 45 0f ef f9                               	pxor	%xmm9, %xmm15
1000035ce:	0f 29 4c 24 60                               	movaps	%xmm1, 96(%rsp)
1000035d3:	48 83 ea 60                                  	subq	$96, %rdx
1000035d7:	0f 82 63 03 00 00                            	jb	867
1000035dd:	b8 70 00 00 00                               	movl	$112, %eax
1000035e2:	4b 8d 4c 13 20                               	leaq	32(%r11,%r10), %rcx
1000035e7:	4c 29 d0                                     	subq	%r10, %rax
1000035ea:	41 0f 10 4b 10                               	movups	16(%r11), %xmm1
1000035ef:	49 89 c2                                     	movq	%rax, %r10
1000035f2:	4c 8d 05 b7 17 00 00                         	leaq	6071(%rip), %r8
1000035f9:	eb 05                                        	jmp	5
1000035fb:	0f 1f 44 00 00                               	nopl	(%rax,%rax)
100003600:	f3 0f 6f 17                                  	movdqu	(%rdi), %xmm2
100003604:	66 44 0f 6f c0                               	movdqa	%xmm0, %xmm8
100003609:	f3 0f 6f 5f 10                               	movdqu	16(%rdi), %xmm3
10000360e:	66 41 0f ef d2                               	pxor	%xmm10, %xmm2
100003613:	f3 0f 6f 67 20                               	movdqu	32(%rdi), %xmm4
100003618:	66 41 0f ef db                               	pxor	%xmm11, %xmm3
10000361d:	66 0f 38 dc d1                               	aesenc	%xmm1, %xmm2
100003622:	f3 0f 6f 6f 30                               	movdqu	48(%rdi), %xmm5
100003627:	66 41 0f ef e4                               	pxor	%xmm12, %xmm4
10000362c:	66 0f 38 dc d9                               	aesenc	%xmm1, %xmm3
100003631:	f3 0f 6f 77 40                               	movdqu	64(%rdi), %xmm6
100003636:	66 41 0f ef ed                               	pxor	%xmm13, %xmm5
10000363b:	66 0f 38 dc e1                               	aesenc	%xmm1, %xmm4
100003640:	f3 0f 6f 7f 50                               	movdqu	80(%rdi), %xmm7
100003645:	66 45 0f ef c7                               	pxor	%xmm15, %xmm8
10000364a:	66 44 0f 6f 4c 24 60                         	movdqa	96(%rsp), %xmm9
100003651:	66 41 0f ef f6                               	pxor	%xmm14, %xmm6
100003656:	66 0f 38 dc e9                               	aesenc	%xmm1, %xmm5
10000365b:	41 0f 10 43 20                               	movups	32(%r11), %xmm0
100003660:	48 8d 7f 60                                  	leaq	96(%rdi), %rdi
100003664:	66 41 0f ef f8                               	pxor	%xmm8, %xmm7
100003669:	66 45 0f ef d1                               	pxor	%xmm9, %xmm10
10000366e:	66 0f 38 dc f1                               	aesenc	%xmm1, %xmm6
100003673:	66 45 0f ef d9                               	pxor	%xmm9, %xmm11
100003678:	66 44 0f 7f 14 24                            	movdqa	%xmm10, (%rsp)
10000367e:	66 0f 38 dc f9                               	aesenc	%xmm1, %xmm7
100003683:	41 0f 10 4b 30                               	movups	48(%r11), %xmm1
100003688:	66 45 0f ef e1                               	pxor	%xmm9, %xmm12
10000368d:	66 0f 38 dc d0                               	aesenc	%xmm0, %xmm2
100003692:	66 45 0f ef e9                               	pxor	%xmm9, %xmm13
100003697:	66 44 0f 7f 5c 24 10                         	movdqa	%xmm11, 16(%rsp)
10000369e:	66 0f 38 dc d8                               	aesenc	%xmm0, %xmm3
1000036a3:	66 45 0f ef f1                               	pxor	%xmm9, %xmm14
1000036a8:	66 44 0f 7f 64 24 20                         	movdqa	%xmm12, 32(%rsp)
1000036af:	66 0f 38 dc e0                               	aesenc	%xmm0, %xmm4
1000036b4:	66 0f 38 dc e8                               	aesenc	%xmm0, %xmm5
1000036b9:	66 45 0f ef c1                               	pxor	%xmm9, %xmm8
1000036be:	66 44 0f 7f 74 24 40                         	movdqa	%xmm14, 64(%rsp)
1000036c5:	66 0f 38 dc f0                               	aesenc	%xmm0, %xmm6
1000036ca:	66 0f 38 dc f8                               	aesenc	%xmm0, %xmm7
1000036cf:	41 0f 10 43 40                               	movups	64(%r11), %xmm0
1000036d4:	66 44 0f 7f 44 24 50                         	movdqa	%xmm8, 80(%rsp)
1000036db:	66 45 0f 70 cf 5f                            	pshufd	$95, %xmm15, %xmm9
1000036e1:	eb 1d                                        	jmp	29
1000036e3:	66 66 66 66 66 66 2e 0f 1f 84 00 00 00 00 00 	nopw	%cs:(%rax,%rax)
1000036f2:	66 66 66 66 66 2e 0f 1f 84 00 00 00 00 00    	nopw	%cs:(%rax,%rax)
100003700:	66 0f 38 dc d1                               	aesenc	%xmm1, %xmm2
100003705:	66 0f 38 dc d9                               	aesenc	%xmm1, %xmm3
10000370a:	66 0f 38 dc e1                               	aesenc	%xmm1, %xmm4
10000370f:	66 0f 38 dc e9                               	aesenc	%xmm1, %xmm5
100003714:	66 0f 38 dc f1                               	aesenc	%xmm1, %xmm6
100003719:	66 0f 38 dc f9                               	aesenc	%xmm1, %xmm7
10000371e:	0f 10 4c 01 c0                               	movups	-64(%rcx,%rax), %xmm1
100003723:	48 83 c0 20                                  	addq	$32, %rax
100003727:	66 0f 38 dc d0                               	aesenc	%xmm0, %xmm2
10000372c:	66 0f 38 dc d8                               	aesenc	%xmm0, %xmm3
100003731:	66 0f 38 dc e0                               	aesenc	%xmm0, %xmm4
100003736:	66 0f 38 dc e8                               	aesenc	%xmm0, %xmm5
10000373b:	66 0f 38 dc f0                               	aesenc	%xmm0, %xmm6
100003740:	66 0f 38 dc f8                               	aesenc	%xmm0, %xmm7
100003745:	0f 10 44 01 b0                               	movups	-80(%rcx,%rax), %xmm0
10000374a:	75 b4                                        	jne	-76
10000374c:	66 45 0f 6f 00                               	movdqa	(%r8), %xmm8
100003751:	66 45 0f 6f f1                               	movdqa	%xmm9, %xmm14
100003756:	66 45 0f fe c9                               	paddd	%xmm9, %xmm9
10000375b:	66 0f 38 dc d1                               	aesenc	%xmm1, %xmm2
100003760:	66 45 0f d4 ff                               	paddq	%xmm15, %xmm15
100003765:	66 41 0f 72 e6 1f                            	psrad	$31, %xmm14
10000376b:	66 0f 38 dc d9                               	aesenc	%xmm1, %xmm3
100003770:	66 45 0f db f0                               	pand	%xmm8, %xmm14
100003775:	45 0f 10 13                                  	movups	(%r11), %xmm10
100003779:	66 0f 38 dc e1                               	aesenc	%xmm1, %xmm4
10000377e:	66 0f 38 dc e9                               	aesenc	%xmm1, %xmm5
100003783:	66 0f 38 dc f1                               	aesenc	%xmm1, %xmm6
100003788:	66 45 0f ef fe                               	pxor	%xmm14, %xmm15
10000378d:	45 0f 28 da                                  	movaps	%xmm10, %xmm11
100003791:	66 0f 38 dc f9                               	aesenc	%xmm1, %xmm7
100003796:	0f 10 49 c0                                  	movups	-64(%rcx), %xmm1
10000379a:	66 45 0f 6f f1                               	movdqa	%xmm9, %xmm14
10000379f:	66 0f 38 dc d0                               	aesenc	%xmm0, %xmm2
1000037a4:	66 45 0f fe c9                               	paddd	%xmm9, %xmm9
1000037a9:	66 45 0f ef d7                               	pxor	%xmm15, %xmm10
1000037ae:	66 0f 38 dc d8                               	aesenc	%xmm0, %xmm3
1000037b3:	66 41 0f 72 e6 1f                            	psrad	$31, %xmm14
1000037b9:	66 45 0f d4 ff                               	paddq	%xmm15, %xmm15
1000037be:	66 0f 38 dc e0                               	aesenc	%xmm0, %xmm4
1000037c3:	66 0f 38 dc e8                               	aesenc	%xmm0, %xmm5
1000037c8:	66 45 0f db f0                               	pand	%xmm8, %xmm14
1000037cd:	45 0f 28 e3                                  	movaps	%xmm11, %xmm12
1000037d1:	66 0f 38 dc f0                               	aesenc	%xmm0, %xmm6
1000037d6:	66 45 0f ef fe                               	pxor	%xmm14, %xmm15
1000037db:	66 45 0f 6f f1                               	movdqa	%xmm9, %xmm14
1000037e0:	66 0f 38 dc f8                               	aesenc	%xmm0, %xmm7
1000037e5:	0f 10 41 d0                                  	movups	-48(%rcx), %xmm0
1000037e9:	66 45 0f fe c9                               	paddd	%xmm9, %xmm9
1000037ee:	66 0f 38 dc d1                               	aesenc	%xmm1, %xmm2
1000037f3:	66 45 0f ef df                               	pxor	%xmm15, %xmm11
1000037f8:	66 41 0f 72 e6 1f                            	psrad	$31, %xmm14
1000037fe:	66 0f 38 dc d9                               	aesenc	%xmm1, %xmm3
100003803:	66 45 0f d4 ff                               	paddq	%xmm15, %xmm15
100003808:	66 45 0f db f0                               	pand	%xmm8, %xmm14
10000380d:	66 0f 38 dc e1                               	aesenc	%xmm1, %xmm4
100003812:	66 0f 38 dc e9                               	aesenc	%xmm1, %xmm5
100003817:	66 44 0f 7f 6c 24 30                         	movdqa	%xmm13, 48(%rsp)
10000381e:	66 45 0f ef fe                               	pxor	%xmm14, %xmm15
100003823:	66 0f 38 dc f1                               	aesenc	%xmm1, %xmm6
100003828:	45 0f 28 ec                                  	movaps	%xmm12, %xmm13
10000382c:	66 45 0f 6f f1                               	movdqa	%xmm9, %xmm14
100003831:	66 0f 38 dc f9                               	aesenc	%xmm1, %xmm7
100003836:	0f 10 49 e0                                  	movups	-32(%rcx), %xmm1
10000383a:	66 45 0f fe c9                               	paddd	%xmm9, %xmm9
10000383f:	66 0f 38 dc d0                               	aesenc	%xmm0, %xmm2
100003844:	66 45 0f ef e7                               	pxor	%xmm15, %xmm12
100003849:	66 41 0f 72 e6 1f                            	psrad	$31, %xmm14
10000384f:	66 0f 38 dc d8                               	aesenc	%xmm0, %xmm3
100003854:	66 45 0f d4 ff                               	paddq	%xmm15, %xmm15
100003859:	66 45 0f db f0                               	pand	%xmm8, %xmm14
10000385e:	66 0f 38 dc e0                               	aesenc	%xmm0, %xmm4
100003863:	66 0f 38 dc e8                               	aesenc	%xmm0, %xmm5
100003868:	66 0f 38 dc f0                               	aesenc	%xmm0, %xmm6
10000386d:	66 45 0f ef fe                               	pxor	%xmm14, %xmm15
100003872:	45 0f 28 f5                                  	movaps	%xmm13, %xmm14
100003876:	66 0f 38 dc f8                               	aesenc	%xmm0, %xmm7
10000387b:	66 41 0f 6f c1                               	movdqa	%xmm9, %xmm0
100003880:	66 45 0f fe c9                               	paddd	%xmm9, %xmm9
100003885:	66 0f 38 dc d1                               	aesenc	%xmm1, %xmm2
10000388a:	66 45 0f ef ef                               	pxor	%xmm15, %xmm13
10000388f:	66 0f 72 e0 1f                               	psrad	$31, %xmm0
100003894:	66 0f 38 dc d9                               	aesenc	%xmm1, %xmm3
100003899:	66 45 0f d4 ff                               	paddq	%xmm15, %xmm15
10000389e:	66 41 0f db c0                               	pand	%xmm8, %xmm0
1000038a3:	66 0f 38 dc e1                               	aesenc	%xmm1, %xmm4
1000038a8:	66 0f 38 dc e9                               	aesenc	%xmm1, %xmm5
1000038ad:	66 44 0f ef f8                               	pxor	%xmm0, %xmm15
1000038b2:	41 0f 10 03                                  	movups	(%r11), %xmm0
1000038b6:	66 0f 38 dc f1                               	aesenc	%xmm1, %xmm6
1000038bb:	66 0f 38 dc f9                               	aesenc	%xmm1, %xmm7
1000038c0:	41 0f 10 4b 10                               	movups	16(%r11), %xmm1
1000038c5:	66 45 0f ef f7                               	pxor	%xmm15, %xmm14
1000038ca:	66 0f 38 dd 54 24 00                         	aesenclast	(%rsp), %xmm2
1000038d1:	66 41 0f 72 e1 1f                            	psrad	$31, %xmm9
1000038d7:	66 45 0f d4 ff                               	paddq	%xmm15, %xmm15
1000038dc:	66 0f 38 dd 5c 24 10                         	aesenclast	16(%rsp), %xmm3
1000038e3:	66 0f 38 dd 64 24 20                         	aesenclast	32(%rsp), %xmm4
1000038ea:	66 45 0f db c8                               	pand	%xmm8, %xmm9
1000038ef:	4c 89 d0                                     	movq	%r10, %rax
1000038f2:	66 0f 38 dd 6c 24 30                         	aesenclast	48(%rsp), %xmm5
1000038f9:	66 0f 38 dd 74 24 40                         	aesenclast	64(%rsp), %xmm6
100003900:	66 0f 38 dd 7c 24 50                         	aesenclast	80(%rsp), %xmm7
100003907:	66 45 0f ef f9                               	pxor	%xmm9, %xmm15
10000390c:	48 8d 76 60                                  	leaq	96(%rsi), %rsi
100003910:	0f 11 56 a0                                  	movups	%xmm2, -96(%rsi)
100003914:	0f 11 5e b0                                  	movups	%xmm3, -80(%rsi)
100003918:	0f 11 66 c0                                  	movups	%xmm4, -64(%rsi)
10000391c:	0f 11 6e d0                                  	movups	%xmm5, -48(%rsi)
100003920:	0f 11 76 e0                                  	movups	%xmm6, -32(%rsi)
100003924:	0f 11 7e f0                                  	movups	%xmm7, -16(%rsi)
100003928:	48 83 ea 60                                  	subq	$96, %rdx
10000392c:	0f 83 ce fc ff ff                            	jae	-818
100003932:	b8 70 00 00 00                               	movl	$112, %eax
100003937:	44 29 d0                                     	subl	%r10d, %eax
10000393a:	4c 89 d9                                     	movq	%r11, %rcx
10000393d:	c1 e8 04                                     	shrl	$4, %eax
100003940:	41 89 c2                                     	movl	%eax, %r10d
100003943:	66 44 0f ef d0                               	pxor	%xmm0, %xmm10
100003948:	48 83 c2 60                                  	addq	$96, %rdx
10000394c:	0f 84 ee 01 00 00                            	je	494
100003952:	66 44 0f ef d8                               	pxor	%xmm0, %xmm11
100003957:	48 83 fa 20                                  	cmpq	$32, %rdx
10000395b:	0f 82 9f 00 00 00                            	jb	159
100003961:	66 44 0f ef e0                               	pxor	%xmm0, %xmm12
100003966:	0f 84 e4 00 00 00                            	je	228
10000396c:	66 44 0f ef e8                               	pxor	%xmm0, %xmm13
100003971:	48 83 fa 40                                  	cmpq	$64, %rdx
100003975:	0f 82 15 01 00 00                            	jb	277
10000397b:	66 44 0f ef f0                               	pxor	%xmm0, %xmm14
100003980:	0f 84 5a 01 00 00                            	je	346
100003986:	f3 0f 6f 17                                  	movdqu	(%rdi), %xmm2
10000398a:	f3 0f 6f 5f 10                               	movdqu	16(%rdi), %xmm3
10000398f:	f3 0f 6f 67 20                               	movdqu	32(%rdi), %xmm4
100003994:	66 41 0f ef d2                               	pxor	%xmm10, %xmm2
100003999:	f3 0f 6f 6f 30                               	movdqu	48(%rdi), %xmm5
10000399e:	66 41 0f ef db                               	pxor	%xmm11, %xmm3
1000039a3:	f3 0f 6f 77 40                               	movdqu	64(%rdi), %xmm6
1000039a8:	48 8d 7f 50                                  	leaq	80(%rdi), %rdi
1000039ac:	66 41 0f ef e4                               	pxor	%xmm12, %xmm4
1000039b1:	66 41 0f ef ed                               	pxor	%xmm13, %xmm5
1000039b6:	66 41 0f ef f6                               	pxor	%xmm14, %xmm6
1000039bb:	e8 00 e7 ff ff                               	callq	-6400
1000039c0:	41 0f 57 d2                                  	xorps	%xmm10, %xmm2
1000039c4:	66 45 0f 6f d7                               	movdqa	%xmm15, %xmm10
1000039c9:	41 0f 57 db                                  	xorps	%xmm11, %xmm3
1000039cd:	41 0f 57 e4                                  	xorps	%xmm12, %xmm4
1000039d1:	f3 0f 7f 16                                  	movdqu	%xmm2, (%rsi)
1000039d5:	41 0f 57 ed                                  	xorps	%xmm13, %xmm5
1000039d9:	f3 0f 7f 5e 10                               	movdqu	%xmm3, 16(%rsi)
1000039de:	41 0f 57 f6                                  	xorps	%xmm14, %xmm6
1000039e2:	f3 0f 7f 66 20                               	movdqu	%xmm4, 32(%rsi)
1000039e7:	f3 0f 7f 6e 30                               	movdqu	%xmm5, 48(%rsi)
1000039ec:	f3 0f 7f 76 40                               	movdqu	%xmm6, 64(%rsi)
1000039f1:	48 8d 76 50                                  	leaq	80(%rsi), %rsi
1000039f5:	e9 46 01 00 00                               	jmp	326
1000039fa:	66 0f 1f 44 00 00                            	nopw	(%rax,%rax)
100003a00:	0f 10 17                                     	movups	(%rdi), %xmm2
100003a03:	48 8d 7f 10                                  	leaq	16(%rdi), %rdi
100003a07:	41 0f 57 d2                                  	xorps	%xmm10, %xmm2
100003a0b:	0f 10 01                                     	movups	(%rcx), %xmm0
100003a0e:	0f 10 49 10                                  	movups	16(%rcx), %xmm1
100003a12:	48 8d 49 20                                  	leaq	32(%rcx), %rcx
100003a16:	0f 57 d0                                     	xorps	%xmm0, %xmm2
100003a19:	66 0f 38 dc d1                               	aesenc	%xmm1, %xmm2
100003a1e:	ff c8                                        	decl	%eax
100003a20:	0f 10 09                                     	movups	(%rcx), %xmm1
100003a23:	48 8d 49 10                                  	leaq	16(%rcx), %rcx
100003a27:	75 f0                                        	jne	-16
100003a29:	66 0f 38 dd d1                               	aesenclast	%xmm1, %xmm2
100003a2e:	41 0f 57 d2                                  	xorps	%xmm10, %xmm2
100003a32:	66 45 0f 6f d3                               	movdqa	%xmm11, %xmm10
100003a37:	0f 11 16                                     	movups	%xmm2, (%rsi)
100003a3a:	48 8d 76 10                                  	leaq	16(%rsi), %rsi
100003a3e:	e9 fd 00 00 00                               	jmp	253
100003a43:	66 66 66 66 2e 0f 1f 84 00 00 00 00 00       	nopw	%cs:(%rax,%rax)
100003a50:	0f 10 17                                     	movups	(%rdi), %xmm2
100003a53:	0f 10 5f 10                                  	movups	16(%rdi), %xmm3
100003a57:	48 8d 7f 20                                  	leaq	32(%rdi), %rdi
100003a5b:	41 0f 57 d2                                  	xorps	%xmm10, %xmm2
100003a5f:	41 0f 57 db                                  	xorps	%xmm11, %xmm3
100003a63:	e8 98 e3 ff ff                               	callq	-7272
100003a68:	41 0f 57 d2                                  	xorps	%xmm10, %xmm2
100003a6c:	66 45 0f 6f d4                               	movdqa	%xmm12, %xmm10
100003a71:	41 0f 57 db                                  	xorps	%xmm11, %xmm3
100003a75:	0f 11 16                                     	movups	%xmm2, (%rsi)
100003a78:	0f 11 5e 10                                  	movups	%xmm3, 16(%rsi)
100003a7c:	48 8d 76 20                                  	leaq	32(%rsi), %rsi
100003a80:	e9 bb 00 00 00                               	jmp	187
100003a85:	66 66 2e 0f 1f 84 00 00 00 00 00             	nopw	%cs:(%rax,%rax)
100003a90:	0f 10 17                                     	movups	(%rdi), %xmm2
100003a93:	0f 10 5f 10                                  	movups	16(%rdi), %xmm3
100003a97:	0f 10 67 20                                  	movups	32(%rdi), %xmm4
100003a9b:	48 8d 7f 30                                  	leaq	48(%rdi), %rdi
100003a9f:	41 0f 57 d2                                  	xorps	%xmm10, %xmm2
100003aa3:	41 0f 57 db                                  	xorps	%xmm11, %xmm3
100003aa7:	41 0f 57 e4                                  	xorps	%xmm12, %xmm4
100003aab:	e8 10 e4 ff ff                               	callq	-7152
100003ab0:	41 0f 57 d2                                  	xorps	%xmm10, %xmm2
100003ab4:	66 45 0f 6f d5                               	movdqa	%xmm13, %xmm10
100003ab9:	41 0f 57 db                                  	xorps	%xmm11, %xmm3
100003abd:	41 0f 57 e4                                  	xorps	%xmm12, %xmm4
100003ac1:	0f 11 16                                     	movups	%xmm2, (%rsi)
100003ac4:	0f 11 5e 10                                  	movups	%xmm3, 16(%rsi)
100003ac8:	0f 11 66 20                                  	movups	%xmm4, 32(%rsi)
100003acc:	48 8d 76 30                                  	leaq	48(%rsi), %rsi
100003ad0:	eb 6e                                        	jmp	110
100003ad2:	66 66 66 66 66 2e 0f 1f 84 00 00 00 00 00    	nopw	%cs:(%rax,%rax)
100003ae0:	0f 10 17                                     	movups	(%rdi), %xmm2
100003ae3:	0f 10 5f 10                                  	movups	16(%rdi), %xmm3
100003ae7:	0f 10 67 20                                  	movups	32(%rdi), %xmm4
100003aeb:	41 0f 57 d2                                  	xorps	%xmm10, %xmm2
100003aef:	0f 10 6f 30                                  	movups	48(%rdi), %xmm5
100003af3:	48 8d 7f 40                                  	leaq	64(%rdi), %rdi
100003af7:	41 0f 57 db                                  	xorps	%xmm11, %xmm3
100003afb:	41 0f 57 e4                                  	xorps	%xmm12, %xmm4
100003aff:	41 0f 57 ed                                  	xorps	%xmm13, %xmm5
100003b03:	e8 98 e4 ff ff                               	callq	-7016
100003b08:	66 41 0f ef d2                               	pxor	%xmm10, %xmm2
100003b0d:	66 45 0f 6f d6                               	movdqa	%xmm14, %xmm10
100003b12:	66 41 0f ef db                               	pxor	%xmm11, %xmm3
100003b17:	66 41 0f ef e4                               	pxor	%xmm12, %xmm4
100003b1c:	f3 0f 7f 16                                  	movdqu	%xmm2, (%rsi)
100003b20:	66 41 0f ef ed                               	pxor	%xmm13, %xmm5
100003b25:	f3 0f 7f 5e 10                               	movdqu	%xmm3, 16(%rsi)
100003b2a:	f3 0f 7f 66 20                               	movdqu	%xmm4, 32(%rsi)
100003b2f:	f3 0f 7f 6e 30                               	movdqu	%xmm5, 48(%rsi)
100003b34:	48 8d 76 40                                  	leaq	64(%rsi), %rsi
100003b38:	eb 06                                        	jmp	6
100003b3a:	66 0f 1f 44 00 00                            	nopw	(%rax,%rax)
100003b40:	49 83 e1 0f                                  	andq	$15, %r9
100003b44:	74 59                                        	je	89
100003b46:	4c 89 ca                                     	movq	%r9, %rdx
100003b49:	0f b6 07                                     	movzbl	(%rdi), %eax
100003b4c:	0f b6 4e f0                                  	movzbl	-16(%rsi), %ecx
100003b50:	48 8d 7f 01                                  	leaq	1(%rdi), %rdi
100003b54:	88 46 f0                                     	movb	%al, -16(%rsi)
100003b57:	88 0e                                        	movb	%cl, (%rsi)
100003b59:	48 8d 76 01                                  	leaq	1(%rsi), %rsi
100003b5d:	48 83 ea 01                                  	subq	$1, %rdx
100003b61:	75 e6                                        	jne	-26
100003b63:	4c 29 ce                                     	subq	%r9, %rsi
100003b66:	4c 89 d9                                     	movq	%r11, %rcx
100003b69:	44 89 d0                                     	movl	%r10d, %eax
100003b6c:	0f 10 56 f0                                  	movups	-16(%rsi), %xmm2
100003b70:	41 0f 57 d2                                  	xorps	%xmm10, %xmm2
100003b74:	0f 10 01                                     	movups	(%rcx), %xmm0
100003b77:	0f 10 49 10                                  	movups	16(%rcx), %xmm1
100003b7b:	48 8d 49 20                                  	leaq	32(%rcx), %rcx
100003b7f:	0f 57 d0                                     	xorps	%xmm0, %xmm2
100003b82:	66 0f 38 dc d1                               	aesenc	%xmm1, %xmm2
100003b87:	ff c8                                        	decl	%eax
100003b89:	0f 10 09                                     	movups	(%rcx), %xmm1
100003b8c:	48 8d 49 10                                  	leaq	16(%rcx), %rcx
100003b90:	75 f0                                        	jne	-16
100003b92:	66 0f 38 dd d1                               	aesenclast	%xmm1, %xmm2
100003b97:	41 0f 57 d2                                  	xorps	%xmm10, %xmm2
100003b9b:	0f 11 56 f0                                  	movups	%xmm2, -16(%rsi)
100003b9f:	48 8d 65 00                                  	leaq	(%rbp), %rsp
100003ba3:	5d                                           	popq	%rbp
100003ba4:	f3                                           	rep
100003ba5:	c3                                           	retq
100003ba6:	66 2e 0f 1f 84 00 00 00 00 00                	nopw	%cs:(%rax,%rax)

_aesni_xts_decrypt:
100003bb0:	48 8d 04 24                                  	leaq	(%rsp), %rax
100003bb4:	55                                           	pushq	%rbp
100003bb5:	48 83 ec 70                                  	subq	$112, %rsp
100003bb9:	48 83 e4 f0                                  	andq	$-16, %rsp
100003bbd:	48 8d 68 f8                                  	leaq	-8(%rax), %rbp
100003bc1:	41 0f 10 11                                  	movups	(%r9), %xmm2
100003bc5:	41 8b 80 f0 00 00 00                         	movl	240(%r8), %eax
100003bcc:	44 8b 91 f0 00 00 00                         	movl	240(%rcx), %r10d
100003bd3:	41 0f 10 00                                  	movups	(%r8), %xmm0
100003bd7:	41 0f 10 48 10                               	movups	16(%r8), %xmm1
100003bdc:	4d 8d 40 20                                  	leaq	32(%r8), %r8
100003be0:	0f 57 d0                                     	xorps	%xmm0, %xmm2
100003be3:	66 0f 38 dc d1                               	aesenc	%xmm1, %xmm2
100003be8:	ff c8                                        	decl	%eax
100003bea:	41 0f 10 08                                  	movups	(%r8), %xmm1
100003bee:	4d 8d 40 10                                  	leaq	16(%r8), %r8
100003bf2:	75 ef                                        	jne	-17
100003bf4:	66 0f 38 dd d1                               	aesenclast	%xmm1, %xmm2
100003bf9:	31 c0                                        	xorl	%eax, %eax
100003bfb:	48 f7 c2 0f 00 00 00                         	testq	$15, %rdx
100003c02:	0f 95 c0                                     	setne	%al
100003c05:	48 c1 e0 04                                  	shlq	$4, %rax
100003c09:	48 29 c2                                     	subq	%rax, %rdx
100003c0c:	0f 10 01                                     	movups	(%rcx), %xmm0
100003c0f:	49 89 cb                                     	movq	%rcx, %r11
100003c12:	44 89 d0                                     	movl	%r10d, %eax
100003c15:	41 c1 e2 04                                  	shll	$4, %r10d
100003c19:	49 89 d1                                     	movq	%rdx, %r9
100003c1c:	48 83 e2 f0                                  	andq	$-16, %rdx
100003c20:	42 0f 10 4c 11 10                            	movups	16(%rcx,%r10), %xmm1
100003c26:	66 44 0f 6f 05 81 11 00 00                   	movdqa	4481(%rip), %xmm8
100003c2f:	66 44 0f 6f fa                               	movdqa	%xmm2, %xmm15
100003c34:	66 44 0f 70 ca 5f                            	pshufd	$95, %xmm2, %xmm9
100003c3a:	66 0f ef c8                                  	pxor	%xmm0, %xmm1
100003c3e:	66 45 0f 6f f1                               	movdqa	%xmm9, %xmm14
100003c43:	66 45 0f fe c9                               	paddd	%xmm9, %xmm9
100003c48:	66 45 0f 6f d7                               	movdqa	%xmm15, %xmm10
100003c4d:	66 41 0f 72 e6 1f                            	psrad	$31, %xmm14
100003c53:	66 45 0f d4 ff                               	paddq	%xmm15, %xmm15
100003c58:	66 45 0f db f0                               	pand	%xmm8, %xmm14
100003c5d:	66 44 0f ef d0                               	pxor	%xmm0, %xmm10
100003c62:	66 45 0f ef fe                               	pxor	%xmm14, %xmm15
100003c67:	66 45 0f 6f f1                               	movdqa	%xmm9, %xmm14
100003c6c:	66 45 0f fe c9                               	paddd	%xmm9, %xmm9
100003c71:	66 45 0f 6f df                               	movdqa	%xmm15, %xmm11
100003c76:	66 41 0f 72 e6 1f                            	psrad	$31, %xmm14
100003c7c:	66 45 0f d4 ff                               	paddq	%xmm15, %xmm15
100003c81:	66 45 0f db f0                               	pand	%xmm8, %xmm14
100003c86:	66 44 0f ef d8                               	pxor	%xmm0, %xmm11
100003c8b:	66 45 0f ef fe                               	pxor	%xmm14, %xmm15
100003c90:	66 45 0f 6f f1                               	movdqa	%xmm9, %xmm14
100003c95:	66 45 0f fe c9                               	paddd	%xmm9, %xmm9
100003c9a:	66 45 0f 6f e7                               	movdqa	%xmm15, %xmm12
100003c9f:	66 41 0f 72 e6 1f                            	psrad	$31, %xmm14
100003ca5:	66 45 0f d4 ff                               	paddq	%xmm15, %xmm15
100003caa:	66 45 0f db f0                               	pand	%xmm8, %xmm14
100003caf:	66 44 0f ef e0                               	pxor	%xmm0, %xmm12
100003cb4:	66 45 0f ef fe                               	pxor	%xmm14, %xmm15
100003cb9:	66 45 0f 6f f1                               	movdqa	%xmm9, %xmm14
100003cbe:	66 45 0f fe c9                               	paddd	%xmm9, %xmm9
100003cc3:	66 45 0f 6f ef                               	movdqa	%xmm15, %xmm13
100003cc8:	66 41 0f 72 e6 1f                            	psrad	$31, %xmm14
100003cce:	66 45 0f d4 ff                               	paddq	%xmm15, %xmm15
100003cd3:	66 45 0f db f0                               	pand	%xmm8, %xmm14
100003cd8:	66 44 0f ef e8                               	pxor	%xmm0, %xmm13
100003cdd:	66 45 0f ef fe                               	pxor	%xmm14, %xmm15
100003ce2:	66 45 0f 6f f7                               	movdqa	%xmm15, %xmm14
100003ce7:	66 41 0f 72 e1 1f                            	psrad	$31, %xmm9
100003ced:	66 45 0f d4 ff                               	paddq	%xmm15, %xmm15
100003cf2:	66 45 0f db c8                               	pand	%xmm8, %xmm9
100003cf7:	66 44 0f ef f0                               	pxor	%xmm0, %xmm14
100003cfc:	66 45 0f ef f9                               	pxor	%xmm9, %xmm15
100003d01:	0f 29 4c 24 60                               	movaps	%xmm1, 96(%rsp)
100003d06:	48 83 ea 60                                  	subq	$96, %rdx
100003d0a:	0f 82 70 03 00 00                            	jb	880
100003d10:	b8 70 00 00 00                               	movl	$112, %eax
100003d15:	4b 8d 4c 13 20                               	leaq	32(%r11,%r10), %rcx
100003d1a:	4c 29 d0                                     	subq	%r10, %rax
100003d1d:	41 0f 10 4b 10                               	movups	16(%r11), %xmm1
100003d22:	49 89 c2                                     	movq	%rax, %r10
100003d25:	4c 8d 05 84 10 00 00                         	leaq	4228(%rip), %r8
100003d2c:	eb 12                                        	jmp	18
100003d2e:	66 66 66 66 66 66 2e 0f 1f 84 00 00 00 00 00 	nopw	%cs:(%rax,%rax)
100003d3d:	0f 1f 00                                     	nopl	(%rax)
100003d40:	f3 0f 6f 17                                  	movdqu	(%rdi), %xmm2
100003d44:	66 44 0f 6f c0                               	movdqa	%xmm0, %xmm8
100003d49:	f3 0f 6f 5f 10                               	movdqu	16(%rdi), %xmm3
100003d4e:	66 41 0f ef d2                               	pxor	%xmm10, %xmm2
100003d53:	f3 0f 6f 67 20                               	movdqu	32(%rdi), %xmm4
100003d58:	66 41 0f ef db                               	pxor	%xmm11, %xmm3
100003d5d:	66 0f 38 de d1                               	aesdec	%xmm1, %xmm2
100003d62:	f3 0f 6f 6f 30                               	movdqu	48(%rdi), %xmm5
100003d67:	66 41 0f ef e4                               	pxor	%xmm12, %xmm4
100003d6c:	66 0f 38 de d9                               	aesdec	%xmm1, %xmm3
100003d71:	f3 0f 6f 77 40                               	movdqu	64(%rdi), %xmm6
100003d76:	66 41 0f ef ed                               	pxor	%xmm13, %xmm5
100003d7b:	66 0f 38 de e1                               	aesdec	%xmm1, %xmm4
100003d80:	f3 0f 6f 7f 50                               	movdqu	80(%rdi), %xmm7
100003d85:	66 45 0f ef c7                               	pxor	%xmm15, %xmm8
100003d8a:	66 44 0f 6f 4c 24 60                         	movdqa	96(%rsp), %xmm9
100003d91:	66 41 0f ef f6                               	pxor	%xmm14, %xmm6
100003d96:	66 0f 38 de e9                               	aesdec	%xmm1, %xmm5
100003d9b:	41 0f 10 43 20                               	movups	32(%r11), %xmm0
100003da0:	48 8d 7f 60                                  	leaq	96(%rdi), %rdi
100003da4:	66 41 0f ef f8                               	pxor	%xmm8, %xmm7
100003da9:	66 45 0f ef d1                               	pxor	%xmm9, %xmm10
100003dae:	66 0f 38 de f1                               	aesdec	%xmm1, %xmm6
100003db3:	66 45 0f ef d9                               	pxor	%xmm9, %xmm11
100003db8:	66 44 0f 7f 14 24                            	movdqa	%xmm10, (%rsp)
100003dbe:	66 0f 38 de f9                               	aesdec	%xmm1, %xmm7
100003dc3:	41 0f 10 4b 30                               	movups	48(%r11), %xmm1
100003dc8:	66 45 0f ef e1                               	pxor	%xmm9, %xmm12
100003dcd:	66 0f 38 de d0                               	aesdec	%xmm0, %xmm2
100003dd2:	66 45 0f ef e9                               	pxor	%xmm9, %xmm13
100003dd7:	66 44 0f 7f 5c 24 10                         	movdqa	%xmm11, 16(%rsp)
100003dde:	66 0f 38 de d8                               	aesdec	%xmm0, %xmm3
100003de3:	66 45 0f ef f1                               	pxor	%xmm9, %xmm14
100003de8:	66 44 0f 7f 64 24 20                         	movdqa	%xmm12, 32(%rsp)
100003def:	66 0f 38 de e0                               	aesdec	%xmm0, %xmm4
100003df4:	66 0f 38 de e8                               	aesdec	%xmm0, %xmm5
100003df9:	66 45 0f ef c1                               	pxor	%xmm9, %xmm8
100003dfe:	66 44 0f 7f 74 24 40                         	movdqa	%xmm14, 64(%rsp)
100003e05:	66 0f 38 de f0                               	aesdec	%xmm0, %xmm6
100003e0a:	66 0f 38 de f8                               	aesdec	%xmm0, %xmm7
100003e0f:	41 0f 10 43 40                               	movups	64(%r11), %xmm0
100003e14:	66 44 0f 7f 44 24 50                         	movdqa	%xmm8, 80(%rsp)
100003e1b:	66 45 0f 70 cf 5f                            	pshufd	$95, %xmm15, %xmm9
100003e21:	eb 1d                                        	jmp	29
100003e23:	66 66 66 66 66 66 2e 0f 1f 84 00 00 00 00 00 	nopw	%cs:(%rax,%rax)
100003e32:	66 66 66 66 66 2e 0f 1f 84 00 00 00 00 00    	nopw	%cs:(%rax,%rax)
100003e40:	66 0f 38 de d1                               	aesdec	%xmm1, %xmm2
100003e45:	66 0f 38 de d9                               	aesdec	%xmm1, %xmm3
100003e4a:	66 0f 38 de e1                               	aesdec	%xmm1, %xmm4
100003e4f:	66 0f 38 de e9                               	aesdec	%xmm1, %xmm5
100003e54:	66 0f 38 de f1                               	aesdec	%xmm1, %xmm6
100003e59:	66 0f 38 de f9                               	aesdec	%xmm1, %xmm7
100003e5e:	0f 10 4c 01 c0                               	movups	-64(%rcx,%rax), %xmm1
100003e63:	48 83 c0 20                                  	addq	$32, %rax
100003e67:	66 0f 38 de d0                               	aesdec	%xmm0, %xmm2
100003e6c:	66 0f 38 de d8                               	aesdec	%xmm0, %xmm3
100003e71:	66 0f 38 de e0                               	aesdec	%xmm0, %xmm4
100003e76:	66 0f 38 de e8                               	aesdec	%xmm0, %xmm5
100003e7b:	66 0f 38 de f0                               	aesdec	%xmm0, %xmm6
100003e80:	66 0f 38 de f8                               	aesdec	%xmm0, %xmm7
100003e85:	0f 10 44 01 b0                               	movups	-80(%rcx,%rax), %xmm0
100003e8a:	75 b4                                        	jne	-76
100003e8c:	66 45 0f 6f 00                               	movdqa	(%r8), %xmm8
100003e91:	66 45 0f 6f f1                               	movdqa	%xmm9, %xmm14
100003e96:	66 45 0f fe c9                               	paddd	%xmm9, %xmm9
100003e9b:	66 0f 38 de d1                               	aesdec	%xmm1, %xmm2
100003ea0:	66 45 0f d4 ff                               	paddq	%xmm15, %xmm15
100003ea5:	66 41 0f 72 e6 1f                            	psrad	$31, %xmm14
100003eab:	66 0f 38 de d9                               	aesdec	%xmm1, %xmm3
100003eb0:	66 45 0f db f0                               	pand	%xmm8, %xmm14
100003eb5:	45 0f 10 13                                  	movups	(%r11), %xmm10
100003eb9:	66 0f 38 de e1                               	aesdec	%xmm1, %xmm4
100003ebe:	66 0f 38 de e9                               	aesdec	%xmm1, %xmm5
100003ec3:	66 0f 38 de f1                               	aesdec	%xmm1, %xmm6
100003ec8:	66 45 0f ef fe                               	pxor	%xmm14, %xmm15
100003ecd:	45 0f 28 da                                  	movaps	%xmm10, %xmm11
100003ed1:	66 0f 38 de f9                               	aesdec	%xmm1, %xmm7
100003ed6:	0f 10 49 c0                                  	movups	-64(%rcx), %xmm1
100003eda:	66 45 0f 6f f1                               	movdqa	%xmm9, %xmm14
100003edf:	66 0f 38 de d0                               	aesdec	%xmm0, %xmm2
100003ee4:	66 45 0f fe c9                               	paddd	%xmm9, %xmm9
100003ee9:	66 45 0f ef d7                               	pxor	%xmm15, %xmm10
100003eee:	66 0f 38 de d8                               	aesdec	%xmm0, %xmm3
100003ef3:	66 41 0f 72 e6 1f                            	psrad	$31, %xmm14
100003ef9:	66 45 0f d4 ff                               	paddq	%xmm15, %xmm15
100003efe:	66 0f 38 de e0                               	aesdec	%xmm0, %xmm4
100003f03:	66 0f 38 de e8                               	aesdec	%xmm0, %xmm5
100003f08:	66 45 0f db f0                               	pand	%xmm8, %xmm14
100003f0d:	45 0f 28 e3                                  	movaps	%xmm11, %xmm12
100003f11:	66 0f 38 de f0                               	aesdec	%xmm0, %xmm6
100003f16:	66 45 0f ef fe                               	pxor	%xmm14, %xmm15
100003f1b:	66 45 0f 6f f1                               	movdqa	%xmm9, %xmm14
100003f20:	66 0f 38 de f8                               	aesdec	%xmm0, %xmm7
100003f25:	0f 10 41 d0                                  	movups	-48(%rcx), %xmm0
100003f29:	66 45 0f fe c9                               	paddd	%xmm9, %xmm9
100003f2e:	66 0f 38 de d1                               	aesdec	%xmm1, %xmm2
100003f33:	66 45 0f ef df                               	pxor	%xmm15, %xmm11
100003f38:	66 41 0f 72 e6 1f                            	psrad	$31, %xmm14
100003f3e:	66 0f 38 de d9                               	aesdec	%xmm1, %xmm3
100003f43:	66 45 0f d4 ff                               	paddq	%xmm15, %xmm15
100003f48:	66 45 0f db f0                               	pand	%xmm8, %xmm14
100003f4d:	66 0f 38 de e1                               	aesdec	%xmm1, %xmm4
100003f52:	66 0f 38 de e9                               	aesdec	%xmm1, %xmm5
100003f57:	66 44 0f 7f 6c 24 30                         	movdqa	%xmm13, 48(%rsp)
100003f5e:	66 45 0f ef fe                               	pxor	%xmm14, %xmm15
100003f63:	66 0f 38 de f1                               	aesdec	%xmm1, %xmm6
100003f68:	45 0f 28 ec                                  	movaps	%xmm12, %xmm13
100003f6c:	66 45 0f 6f f1                               	movdqa	%xmm9, %xmm14
100003f71:	66 0f 38 de f9                               	aesdec	%xmm1, %xmm7
100003f76:	0f 10 49 e0                                  	movups	-32(%rcx), %xmm1
100003f7a:	66 45 0f fe c9                               	paddd	%xmm9, %xmm9
100003f7f:	66 0f 38 de d0                               	aesdec	%xmm0, %xmm2
100003f84:	66 45 0f ef e7                               	pxor	%xmm15, %xmm12
100003f89:	66 41 0f 72 e6 1f                            	psrad	$31, %xmm14
100003f8f:	66 0f 38 de d8                               	aesdec	%xmm0, %xmm3
100003f94:	66 45 0f d4 ff                               	paddq	%xmm15, %xmm15
100003f99:	66 45 0f db f0                               	pand	%xmm8, %xmm14
100003f9e:	66 0f 38 de e0                               	aesdec	%xmm0, %xmm4
100003fa3:	66 0f 38 de e8                               	aesdec	%xmm0, %xmm5
100003fa8:	66 0f 38 de f0                               	aesdec	%xmm0, %xmm6
100003fad:	66 45 0f ef fe                               	pxor	%xmm14, %xmm15
100003fb2:	45 0f 28 f5                                  	movaps	%xmm13, %xmm14
100003fb6:	66 0f 38 de f8                               	aesdec	%xmm0, %xmm7
100003fbb:	66 41 0f 6f c1                               	movdqa	%xmm9, %xmm0
100003fc0:	66 45 0f fe c9                               	paddd	%xmm9, %xmm9
100003fc5:	66 0f 38 de d1                               	aesdec	%xmm1, %xmm2
100003fca:	66 45 0f ef ef                               	pxor	%xmm15, %xmm13
100003fcf:	66 0f 72 e0 1f                               	psrad	$31, %xmm0
100003fd4:	66 0f 38 de d9                               	aesdec	%xmm1, %xmm3
100003fd9:	66 45 0f d4 ff                               	paddq	%xmm15, %xmm15
100003fde:	66 41 0f db c0                               	pand	%xmm8, %xmm0
100003fe3:	66 0f 38 de e1                               	aesdec	%xmm1, %xmm4
100003fe8:	66 0f 38 de e9                               	aesdec	%xmm1, %xmm5
100003fed:	66 44 0f ef f8                               	pxor	%xmm0, %xmm15
100003ff2:	41 0f 10 03                                  	movups	(%r11), %xmm0
100003ff6:	66 0f 38 de f1                               	aesdec	%xmm1, %xmm6
100003ffb:	66 0f 38 de f9                               	aesdec	%xmm1, %xmm7
100004000:	41 0f 10 4b 10                               	movups	16(%r11), %xmm1
100004005:	66 45 0f ef f7                               	pxor	%xmm15, %xmm14
10000400a:	66 0f 38 df 54 24 00                         	aesdeclast	(%rsp), %xmm2
100004011:	66 41 0f 72 e1 1f                            	psrad	$31, %xmm9
100004017:	66 45 0f d4 ff                               	paddq	%xmm15, %xmm15
10000401c:	66 0f 38 df 5c 24 10                         	aesdeclast	16(%rsp), %xmm3
100004023:	66 0f 38 df 64 24 20                         	aesdeclast	32(%rsp), %xmm4
10000402a:	66 45 0f db c8                               	pand	%xmm8, %xmm9
10000402f:	4c 89 d0                                     	movq	%r10, %rax
100004032:	66 0f 38 df 6c 24 30                         	aesdeclast	48(%rsp), %xmm5
100004039:	66 0f 38 df 74 24 40                         	aesdeclast	64(%rsp), %xmm6
100004040:	66 0f 38 df 7c 24 50                         	aesdeclast	80(%rsp), %xmm7
100004047:	66 45 0f ef f9                               	pxor	%xmm9, %xmm15
10000404c:	48 8d 76 60                                  	leaq	96(%rsi), %rsi
100004050:	0f 11 56 a0                                  	movups	%xmm2, -96(%rsi)
100004054:	0f 11 5e b0                                  	movups	%xmm3, -80(%rsi)
100004058:	0f 11 66 c0                                  	movups	%xmm4, -64(%rsi)
10000405c:	0f 11 6e d0                                  	movups	%xmm5, -48(%rsi)
100004060:	0f 11 76 e0                                  	movups	%xmm6, -32(%rsi)
100004064:	0f 11 7e f0                                  	movups	%xmm7, -16(%rsi)
100004068:	48 83 ea 60                                  	subq	$96, %rdx
10000406c:	0f 83 ce fc ff ff                            	jae	-818
100004072:	b8 70 00 00 00                               	movl	$112, %eax
100004077:	44 29 d0                                     	subl	%r10d, %eax
10000407a:	4c 89 d9                                     	movq	%r11, %rcx
10000407d:	c1 e8 04                                     	shrl	$4, %eax
100004080:	41 89 c2                                     	movl	%eax, %r10d
100004083:	66 44 0f ef d0                               	pxor	%xmm0, %xmm10
100004088:	66 44 0f ef d8                               	pxor	%xmm0, %xmm11
10000408d:	48 83 c2 60                                  	addq	$96, %rdx
100004091:	0f 84 19 02 00 00                            	je	537
100004097:	66 44 0f ef e0                               	pxor	%xmm0, %xmm12
10000409c:	48 83 fa 20                                  	cmpq	$32, %rdx
1000040a0:	0f 82 ca 00 00 00                            	jb	202
1000040a6:	66 44 0f ef e8                               	pxor	%xmm0, %xmm13
1000040ab:	0f 84 0f 01 00 00                            	je	271
1000040b1:	66 44 0f ef f0                               	pxor	%xmm0, %xmm14
1000040b6:	48 83 fa 40                                  	cmpq	$64, %rdx
1000040ba:	0f 82 40 01 00 00                            	jb	320
1000040c0:	0f 84 8a 01 00 00                            	je	394
1000040c6:	f3 0f 6f 17                                  	movdqu	(%rdi), %xmm2
1000040ca:	f3 0f 6f 5f 10                               	movdqu	16(%rdi), %xmm3
1000040cf:	f3 0f 6f 67 20                               	movdqu	32(%rdi), %xmm4
1000040d4:	66 41 0f ef d2                               	pxor	%xmm10, %xmm2
1000040d9:	f3 0f 6f 6f 30                               	movdqu	48(%rdi), %xmm5
1000040de:	66 41 0f ef db                               	pxor	%xmm11, %xmm3
1000040e3:	f3 0f 6f 77 40                               	movdqu	64(%rdi), %xmm6
1000040e8:	48 8d 7f 50                                  	leaq	80(%rdi), %rdi
1000040ec:	66 41 0f ef e4                               	pxor	%xmm12, %xmm4
1000040f1:	66 41 0f ef ed                               	pxor	%xmm13, %xmm5
1000040f6:	66 41 0f ef f6                               	pxor	%xmm14, %xmm6
1000040fb:	e8 b0 e0 ff ff                               	callq	-8016
100004100:	41 0f 57 d2                                  	xorps	%xmm10, %xmm2
100004104:	41 0f 57 db                                  	xorps	%xmm11, %xmm3
100004108:	41 0f 57 e4                                  	xorps	%xmm12, %xmm4
10000410c:	f3 0f 7f 16                                  	movdqu	%xmm2, (%rsi)
100004110:	41 0f 57 ed                                  	xorps	%xmm13, %xmm5
100004114:	f3 0f 7f 5e 10                               	movdqu	%xmm3, 16(%rsi)
100004119:	41 0f 57 f6                                  	xorps	%xmm14, %xmm6
10000411d:	f3 0f 7f 66 20                               	movdqu	%xmm4, 32(%rsi)
100004122:	66 45 0f ef f6                               	pxor	%xmm14, %xmm14
100004127:	f3 0f 7f 6e 30                               	movdqu	%xmm5, 48(%rsi)
10000412c:	66 45 0f 66 f7                               	pcmpgtd	%xmm15, %xmm14
100004131:	f3 0f 7f 76 40                               	movdqu	%xmm6, 64(%rsi)
100004136:	48 8d 76 50                                  	leaq	80(%rsi), %rsi
10000413a:	66 45 0f 70 de 13                            	pshufd	$19, %xmm14, %xmm11
100004140:	49 83 e1 0f                                  	andq	$15, %r9
100004144:	0f 84 fe 01 00 00                            	je	510
10000414a:	66 45 0f 6f d7                               	movdqa	%xmm15, %xmm10
10000414f:	66 45 0f d4 ff                               	paddq	%xmm15, %xmm15
100004154:	66 45 0f db d8                               	pand	%xmm8, %xmm11
100004159:	66 45 0f ef df                               	pxor	%xmm15, %xmm11
10000415e:	e9 57 01 00 00                               	jmp	343
100004163:	66 66 66 66 2e 0f 1f 84 00 00 00 00 00       	nopw	%cs:(%rax,%rax)
100004170:	0f 10 17                                     	movups	(%rdi), %xmm2
100004173:	48 8d 7f 10                                  	leaq	16(%rdi), %rdi
100004177:	41 0f 57 d2                                  	xorps	%xmm10, %xmm2
10000417b:	0f 10 01                                     	movups	(%rcx), %xmm0
10000417e:	0f 10 49 10                                  	movups	16(%rcx), %xmm1
100004182:	48 8d 49 20                                  	leaq	32(%rcx), %rcx
100004186:	0f 57 d0                                     	xorps	%xmm0, %xmm2
100004189:	66 0f 38 de d1                               	aesdec	%xmm1, %xmm2
10000418e:	ff c8                                        	decl	%eax
100004190:	0f 10 09                                     	movups	(%rcx), %xmm1
100004193:	48 8d 49 10                                  	leaq	16(%rcx), %rcx
100004197:	75 f0                                        	jne	-16
100004199:	66 0f 38 df d1                               	aesdeclast	%xmm1, %xmm2
10000419e:	41 0f 57 d2                                  	xorps	%xmm10, %xmm2
1000041a2:	66 45 0f 6f d3                               	movdqa	%xmm11, %xmm10
1000041a7:	0f 11 16                                     	movups	%xmm2, (%rsi)
1000041aa:	66 45 0f 6f dc                               	movdqa	%xmm12, %xmm11
1000041af:	48 8d 76 10                                  	leaq	16(%rsi), %rsi
1000041b3:	e9 f8 00 00 00                               	jmp	248
1000041b8:	0f 1f 84 00 00 00 00 00                      	nopl	(%rax,%rax)
1000041c0:	0f 10 17                                     	movups	(%rdi), %xmm2
1000041c3:	0f 10 5f 10                                  	movups	16(%rdi), %xmm3
1000041c7:	48 8d 7f 20                                  	leaq	32(%rdi), %rdi
1000041cb:	41 0f 57 d2                                  	xorps	%xmm10, %xmm2
1000041cf:	41 0f 57 db                                  	xorps	%xmm11, %xmm3
1000041d3:	e8 88 dc ff ff                               	callq	-9080
1000041d8:	41 0f 57 d2                                  	xorps	%xmm10, %xmm2
1000041dc:	66 45 0f 6f d4                               	movdqa	%xmm12, %xmm10
1000041e1:	41 0f 57 db                                  	xorps	%xmm11, %xmm3
1000041e5:	66 45 0f 6f dd                               	movdqa	%xmm13, %xmm11
1000041ea:	0f 11 16                                     	movups	%xmm2, (%rsi)
1000041ed:	0f 11 5e 10                                  	movups	%xmm3, 16(%rsi)
1000041f1:	48 8d 76 20                                  	leaq	32(%rsi), %rsi
1000041f5:	e9 b6 00 00 00                               	jmp	182
1000041fa:	66 0f 1f 44 00 00                            	nopw	(%rax,%rax)
100004200:	0f 10 17                                     	movups	(%rdi), %xmm2
100004203:	0f 10 5f 10                                  	movups	16(%rdi), %xmm3
100004207:	0f 10 67 20                                  	movups	32(%rdi), %xmm4
10000420b:	48 8d 7f 30                                  	leaq	48(%rdi), %rdi
10000420f:	41 0f 57 d2                                  	xorps	%xmm10, %xmm2
100004213:	41 0f 57 db                                  	xorps	%xmm11, %xmm3
100004217:	41 0f 57 e4                                  	xorps	%xmm12, %xmm4
10000421b:	e8 10 dd ff ff                               	callq	-8944
100004220:	41 0f 57 d2                                  	xorps	%xmm10, %xmm2
100004224:	66 45 0f 6f d5                               	movdqa	%xmm13, %xmm10
100004229:	41 0f 57 db                                  	xorps	%xmm11, %xmm3
10000422d:	66 45 0f 6f de                               	movdqa	%xmm14, %xmm11
100004232:	41 0f 57 e4                                  	xorps	%xmm12, %xmm4
100004236:	0f 11 16                                     	movups	%xmm2, (%rsi)
100004239:	0f 11 5e 10                                  	movups	%xmm3, 16(%rsi)
10000423d:	0f 11 66 20                                  	movups	%xmm4, 32(%rsi)
100004241:	48 8d 76 30                                  	leaq	48(%rsi), %rsi
100004245:	eb 69                                        	jmp	105
100004247:	66 0f 1f 84 00 00 00 00 00                   	nopw	(%rax,%rax)
100004250:	0f 10 17                                     	movups	(%rdi), %xmm2
100004253:	0f 10 5f 10                                  	movups	16(%rdi), %xmm3
100004257:	0f 10 67 20                                  	movups	32(%rdi), %xmm4
10000425b:	41 0f 57 d2                                  	xorps	%xmm10, %xmm2
10000425f:	0f 10 6f 30                                  	movups	48(%rdi), %xmm5
100004263:	48 8d 7f 40                                  	leaq	64(%rdi), %rdi
100004267:	41 0f 57 db                                  	xorps	%xmm11, %xmm3
10000426b:	41 0f 57 e4                                  	xorps	%xmm12, %xmm4
10000426f:	41 0f 57 ed                                  	xorps	%xmm13, %xmm5
100004273:	e8 b8 dd ff ff                               	callq	-8776
100004278:	66 41 0f ef d2                               	pxor	%xmm10, %xmm2
10000427d:	66 45 0f 6f d6                               	movdqa	%xmm14, %xmm10
100004282:	66 41 0f ef db                               	pxor	%xmm11, %xmm3
100004287:	66 45 0f 6f df                               	movdqa	%xmm15, %xmm11
10000428c:	66 41 0f ef e4                               	pxor	%xmm12, %xmm4
100004291:	f3 0f 7f 16                                  	movdqu	%xmm2, (%rsi)
100004295:	66 41 0f ef ed                               	pxor	%xmm13, %xmm5
10000429a:	f3 0f 7f 5e 10                               	movdqu	%xmm3, 16(%rsi)
10000429f:	f3 0f 7f 66 20                               	movdqu	%xmm4, 32(%rsi)
1000042a4:	f3 0f 7f 6e 30                               	movdqu	%xmm5, 48(%rsi)
1000042a9:	48 8d 76 40                                  	leaq	64(%rsi), %rsi
1000042ad:	eb 01                                        	jmp	1
1000042af:	90                                           	nop
1000042b0:	49 83 e1 0f                                  	andq	$15, %r9
1000042b4:	0f 84 8e 00 00 00                            	je	142
1000042ba:	4c 89 ca                                     	movq	%r9, %rdx
1000042bd:	4c 89 d9                                     	movq	%r11, %rcx
1000042c0:	44 89 d0                                     	movl	%r10d, %eax
1000042c3:	0f 10 17                                     	movups	(%rdi), %xmm2
1000042c6:	41 0f 57 d3                                  	xorps	%xmm11, %xmm2
1000042ca:	0f 10 01                                     	movups	(%rcx), %xmm0
1000042cd:	0f 10 49 10                                  	movups	16(%rcx), %xmm1
1000042d1:	48 8d 49 20                                  	leaq	32(%rcx), %rcx
1000042d5:	0f 57 d0                                     	xorps	%xmm0, %xmm2
1000042d8:	66 0f 38 de d1                               	aesdec	%xmm1, %xmm2
1000042dd:	ff c8                                        	decl	%eax
1000042df:	0f 10 09                                     	movups	(%rcx), %xmm1
1000042e2:	48 8d 49 10                                  	leaq	16(%rcx), %rcx
1000042e6:	75 f0                                        	jne	-16
1000042e8:	66 0f 38 df d1                               	aesdeclast	%xmm1, %xmm2
1000042ed:	41 0f 57 d3                                  	xorps	%xmm11, %xmm2
1000042f1:	0f 11 16                                     	movups	%xmm2, (%rsi)
1000042f4:	0f b6 47 10                                  	movzbl	16(%rdi), %eax
1000042f8:	0f b6 0e                                     	movzbl	(%rsi), %ecx
1000042fb:	48 8d 7f 01                                  	leaq	1(%rdi), %rdi
1000042ff:	88 06                                        	movb	%al, (%rsi)
100004301:	88 4e 10                                     	movb	%cl, 16(%rsi)
100004304:	48 8d 76 01                                  	leaq	1(%rsi), %rsi
100004308:	48 83 ea 01                                  	subq	$1, %rdx
10000430c:	75 e6                                        	jne	-26
10000430e:	4c 29 ce                                     	subq	%r9, %rsi
100004311:	4c 89 d9                                     	movq	%r11, %rcx
100004314:	44 89 d0                                     	movl	%r10d, %eax
100004317:	0f 10 16                                     	movups	(%rsi), %xmm2
10000431a:	41 0f 57 d2                                  	xorps	%xmm10, %xmm2
10000431e:	0f 10 01                                     	movups	(%rcx), %xmm0
100004321:	0f 10 49 10                                  	movups	16(%rcx), %xmm1
100004325:	48 8d 49 20                                  	leaq	32(%rcx), %rcx
100004329:	0f 57 d0                                     	xorps	%xmm0, %xmm2
10000432c:	66 0f 38 de d1                               	aesdec	%xmm1, %xmm2
100004331:	ff c8                                        	decl	%eax
100004333:	0f 10 09                                     	movups	(%rcx), %xmm1
100004336:	48 8d 49 10                                  	leaq	16(%rcx), %rcx
10000433a:	75 f0                                        	jne	-16
10000433c:	66 0f 38 df d1                               	aesdeclast	%xmm1, %xmm2
100004341:	41 0f 57 d2                                  	xorps	%xmm10, %xmm2
100004345:	0f 11 16                                     	movups	%xmm2, (%rsi)
100004348:	48 8d 65 00                                  	leaq	(%rbp), %rsp
10000434c:	5d                                           	popq	%rbp
10000434d:	f3                                           	rep
10000434e:	c3                                           	retq
10000434f:	90                                           	nop

_aesni_cbc_encrypt:
100004350:	48 85 d2                                     	testq	%rdx, %rdx
100004353:	0f 84 25 08 00 00                            	je	2085
100004359:	44 8b 91 f0 00 00 00                         	movl	240(%rcx), %r10d
100004360:	49 89 cb                                     	movq	%rcx, %r11
100004363:	45 85 c9                                     	testl	%r9d, %r9d
100004366:	0f 84 94 00 00 00                            	je	148
10000436c:	41 0f 10 10                                  	movups	(%r8), %xmm2
100004370:	44 89 d0                                     	movl	%r10d, %eax
100004373:	48 83 fa 10                                  	cmpq	$16, %rdx
100004377:	72 56                                        	jb	86
100004379:	48 83 ea 10                                  	subq	$16, %rdx
10000437d:	eb 01                                        	jmp	1
10000437f:	90                                           	nop
100004380:	0f 10 1f                                     	movups	(%rdi), %xmm3
100004383:	48 8d 7f 10                                  	leaq	16(%rdi), %rdi
100004387:	0f 10 01                                     	movups	(%rcx), %xmm0
10000438a:	0f 10 49 10                                  	movups	16(%rcx), %xmm1
10000438e:	0f 57 d8                                     	xorps	%xmm0, %xmm3
100004391:	48 8d 49 20                                  	leaq	32(%rcx), %rcx
100004395:	0f 57 d3                                     	xorps	%xmm3, %xmm2
100004398:	66 0f 38 dc d1                               	aesenc	%xmm1, %xmm2
10000439d:	ff c8                                        	decl	%eax
10000439f:	0f 10 09                                     	movups	(%rcx), %xmm1
1000043a2:	48 8d 49 10                                  	leaq	16(%rcx), %rcx
1000043a6:	75 f0                                        	jne	-16
1000043a8:	66 0f 38 dd d1                               	aesenclast	%xmm1, %xmm2
1000043ad:	44 89 d0                                     	movl	%r10d, %eax
1000043b0:	4c 89 d9                                     	movq	%r11, %rcx
1000043b3:	0f 11 16                                     	movups	%xmm2, (%rsi)
1000043b6:	48 8d 76 10                                  	leaq	16(%rsi), %rsi
1000043ba:	48 83 ea 10                                  	subq	$16, %rdx
1000043be:	73 c0                                        	jae	-64
1000043c0:	48 83 c2 10                                  	addq	$16, %rdx
1000043c4:	75 09                                        	jne	9
1000043c6:	41 0f 11 10                                  	movups	%xmm2, (%r8)
1000043ca:	e9 af 07 00 00                               	jmp	1967
1000043cf:	48 89 d1                                     	movq	%rdx, %rcx
1000043d2:	48 87 fe                                     	xchgq	%rdi, %rsi
1000043d5:	f3                                           	rep
1000043d6:	a4                                           	movsb	(%rsi), %es:(%rdi)
1000043d7:	66 90                                        	nop
1000043d9:	b9 10 00 00 00                               	movl	$16, %ecx
1000043de:	48 29 d1                                     	subq	%rdx, %rcx
1000043e1:	31 c0                                        	xorl	%eax, %eax
1000043e3:	f3                                           	rep
1000043e4:	aa                                           	stosb	%al, %es:(%rdi)
1000043e5:	66 90                                        	nop
1000043e7:	48 8d 7f f0                                  	leaq	-16(%rdi), %rdi
1000043eb:	44 89 d0                                     	movl	%r10d, %eax
1000043ee:	48 89 fe                                     	movq	%rdi, %rsi
1000043f1:	4c 89 d9                                     	movq	%r11, %rcx
1000043f4:	48 31 d2                                     	xorq	%rdx, %rdx
1000043f7:	eb 87                                        	jmp	-121
1000043f9:	0f 1f 80 00 00 00 00                         	nopl	(%rax)
100004400:	48 8d 04 24                                  	leaq	(%rsp), %rax
100004404:	55                                           	pushq	%rbp
100004405:	48 83 ec 10                                  	subq	$16, %rsp
100004409:	48 83 e4 f0                                  	andq	$-16, %rsp
10000440d:	48 8d 68 f8                                  	leaq	-8(%rax), %rbp
100004411:	45 0f 10 10                                  	movups	(%r8), %xmm10
100004415:	44 89 d0                                     	movl	%r10d, %eax
100004418:	48 83 fa 50                                  	cmpq	$80, %rdx
10000441c:	0f 86 ad 05 00 00                            	jbe	1453
100004422:	0f 10 01                                     	movups	(%rcx), %xmm0
100004425:	f3 0f 6f 17                                  	movdqu	(%rdi), %xmm2
100004429:	f3 0f 6f 5f 10                               	movdqu	16(%rdi), %xmm3
10000442e:	66 44 0f 6f da                               	movdqa	%xmm2, %xmm11
100004433:	f3 0f 6f 67 20                               	movdqu	32(%rdi), %xmm4
100004438:	66 44 0f 6f e3                               	movdqa	%xmm3, %xmm12
10000443d:	f3 0f 6f 6f 30                               	movdqu	48(%rdi), %xmm5
100004442:	66 44 0f 6f ec                               	movdqa	%xmm4, %xmm13
100004447:	f3 0f 6f 77 40                               	movdqu	64(%rdi), %xmm6
10000444c:	66 44 0f 6f f5                               	movdqa	%xmm5, %xmm14
100004451:	f3 0f 6f 7f 50                               	movdqu	80(%rdi), %xmm7
100004456:	66 44 0f 6f fe                               	movdqa	%xmm6, %xmm15
10000445b:	44 8b 0d c2 0c 00 00                         	movl	3266(%rip), %r9d
100004462:	48 83 fa 70                                  	cmpq	$112, %rdx
100004466:	0f 86 ea 03 00 00                            	jbe	1002
10000446c:	41 81 e1 00 00 40 04                         	andl	$71303168, %r9d
100004473:	48 83 ea 50                                  	subq	$80, %rdx
100004477:	41 81 f9 00 00 40 00                         	cmpl	$4194304, %r9d
10000447e:	0f 84 d9 04 00 00                            	je	1241
100004484:	48 83 ea 20                                  	subq	$32, %rdx
100004488:	48 8d 49 70                                  	leaq	112(%rcx), %rcx
10000448c:	eb 0a                                        	jmp	10
10000448e:	66 90                                        	nop
100004490:	44 0f 11 0e                                  	movups	%xmm9, (%rsi)
100004494:	48 8d 76 10                                  	leaq	16(%rsi), %rsi
100004498:	f3 44 0f 6f 47 60                            	movdqu	96(%rdi), %xmm8
10000449e:	66 0f ef d0                                  	pxor	%xmm0, %xmm2
1000044a2:	f3 44 0f 6f 4f 70                            	movdqu	112(%rdi), %xmm9
1000044a8:	66 0f ef d8                                  	pxor	%xmm0, %xmm3
1000044ac:	0f 10 49 a0                                  	movups	-96(%rcx), %xmm1
1000044b0:	66 0f ef e0                                  	pxor	%xmm0, %xmm4
1000044b4:	4d 31 db                                     	xorq	%r11, %r11
1000044b7:	48 83 fa 70                                  	cmpq	$112, %rdx
1000044bb:	66 0f ef e8                                  	pxor	%xmm0, %xmm5
1000044bf:	66 0f ef f0                                  	pxor	%xmm0, %xmm6
1000044c3:	66 0f ef f8                                  	pxor	%xmm0, %xmm7
1000044c7:	66 44 0f ef c0                               	pxor	%xmm0, %xmm8
1000044cc:	66 0f 38 de d1                               	aesdec	%xmm1, %xmm2
1000044d1:	66 44 0f ef c8                               	pxor	%xmm0, %xmm9
1000044d6:	0f 10 41 b0                                  	movups	-80(%rcx), %xmm0
1000044da:	66 0f 38 de d9                               	aesdec	%xmm1, %xmm3
1000044df:	66 0f 38 de e1                               	aesdec	%xmm1, %xmm4
1000044e4:	66 0f 38 de e9                               	aesdec	%xmm1, %xmm5
1000044e9:	66 0f 38 de f1                               	aesdec	%xmm1, %xmm6
1000044ee:	66 0f 38 de f9                               	aesdec	%xmm1, %xmm7
1000044f3:	66 44 0f 38 de c1                            	aesdec	%xmm1, %xmm8
1000044f9:	41 0f 93 c3                                  	setae	%r11b
1000044fd:	49 c1 e3 07                                  	shlq	$7, %r11
100004501:	66 44 0f 38 de c9                            	aesdec	%xmm1, %xmm9
100004507:	49 01 fb                                     	addq	%rdi, %r11
10000450a:	0f 10 49 c0                                  	movups	-64(%rcx), %xmm1
10000450e:	66 0f 38 de d0                               	aesdec	%xmm0, %xmm2
100004513:	66 0f 38 de d8                               	aesdec	%xmm0, %xmm3
100004518:	66 0f 38 de e0                               	aesdec	%xmm0, %xmm4
10000451d:	66 0f 38 de e8                               	aesdec	%xmm0, %xmm5
100004522:	66 0f 38 de f0                               	aesdec	%xmm0, %xmm6
100004527:	66 0f 38 de f8                               	aesdec	%xmm0, %xmm7
10000452c:	66 44 0f 38 de c0                            	aesdec	%xmm0, %xmm8
100004532:	66 44 0f 38 de c8                            	aesdec	%xmm0, %xmm9
100004538:	0f 10 41 d0                                  	movups	-48(%rcx), %xmm0
10000453c:	90                                           	nop
10000453d:	66 0f 38 de d1                               	aesdec	%xmm1, %xmm2
100004542:	66 0f 38 de d9                               	aesdec	%xmm1, %xmm3
100004547:	66 0f 38 de e1                               	aesdec	%xmm1, %xmm4
10000454c:	66 0f 38 de e9                               	aesdec	%xmm1, %xmm5
100004551:	66 0f 38 de f1                               	aesdec	%xmm1, %xmm6
100004556:	66 0f 38 de f9                               	aesdec	%xmm1, %xmm7
10000455b:	66 44 0f 38 de c1                            	aesdec	%xmm1, %xmm8
100004561:	66 44 0f 38 de c9                            	aesdec	%xmm1, %xmm9
100004567:	0f 10 49 e0                                  	movups	-32(%rcx), %xmm1
10000456b:	90                                           	nop
10000456c:	66 0f 38 de d0                               	aesdec	%xmm0, %xmm2
100004571:	66 0f 38 de d8                               	aesdec	%xmm0, %xmm3
100004576:	66 0f 38 de e0                               	aesdec	%xmm0, %xmm4
10000457b:	66 0f 38 de e8                               	aesdec	%xmm0, %xmm5
100004580:	66 0f 38 de f0                               	aesdec	%xmm0, %xmm6
100004585:	66 0f 38 de f8                               	aesdec	%xmm0, %xmm7
10000458a:	66 44 0f 38 de c0                            	aesdec	%xmm0, %xmm8
100004590:	66 44 0f 38 de c8                            	aesdec	%xmm0, %xmm9
100004596:	0f 10 41 f0                                  	movups	-16(%rcx), %xmm0
10000459a:	90                                           	nop
10000459b:	66 0f 38 de d1                               	aesdec	%xmm1, %xmm2
1000045a0:	66 0f 38 de d9                               	aesdec	%xmm1, %xmm3
1000045a5:	66 0f 38 de e1                               	aesdec	%xmm1, %xmm4
1000045aa:	66 0f 38 de e9                               	aesdec	%xmm1, %xmm5
1000045af:	66 0f 38 de f1                               	aesdec	%xmm1, %xmm6
1000045b4:	66 0f 38 de f9                               	aesdec	%xmm1, %xmm7
1000045b9:	66 44 0f 38 de c1                            	aesdec	%xmm1, %xmm8
1000045bf:	66 44 0f 38 de c9                            	aesdec	%xmm1, %xmm9
1000045c5:	0f 10 09                                     	movups	(%rcx), %xmm1
1000045c8:	90                                           	nop
1000045c9:	66 0f 38 de d0                               	aesdec	%xmm0, %xmm2
1000045ce:	66 0f 38 de d8                               	aesdec	%xmm0, %xmm3
1000045d3:	66 0f 38 de e0                               	aesdec	%xmm0, %xmm4
1000045d8:	66 0f 38 de e8                               	aesdec	%xmm0, %xmm5
1000045dd:	66 0f 38 de f0                               	aesdec	%xmm0, %xmm6
1000045e2:	66 0f 38 de f8                               	aesdec	%xmm0, %xmm7
1000045e7:	66 44 0f 38 de c0                            	aesdec	%xmm0, %xmm8
1000045ed:	66 44 0f 38 de c8                            	aesdec	%xmm0, %xmm9
1000045f3:	0f 10 41 10                                  	movups	16(%rcx), %xmm0
1000045f7:	90                                           	nop
1000045f8:	66 0f 38 de d1                               	aesdec	%xmm1, %xmm2
1000045fd:	66 0f 38 de d9                               	aesdec	%xmm1, %xmm3
100004602:	66 0f 38 de e1                               	aesdec	%xmm1, %xmm4
100004607:	66 0f 38 de e9                               	aesdec	%xmm1, %xmm5
10000460c:	66 0f 38 de f1                               	aesdec	%xmm1, %xmm6
100004611:	66 0f 38 de f9                               	aesdec	%xmm1, %xmm7
100004616:	66 44 0f 38 de c1                            	aesdec	%xmm1, %xmm8
10000461c:	66 44 0f 38 de c9                            	aesdec	%xmm1, %xmm9
100004622:	0f 10 49 20                                  	movups	32(%rcx), %xmm1
100004626:	83 f8 0b                                     	cmpl	$11, %eax
100004629:	66 0f 38 de d0                               	aesdec	%xmm0, %xmm2
10000462e:	66 0f 38 de d8                               	aesdec	%xmm0, %xmm3
100004633:	66 0f 38 de e0                               	aesdec	%xmm0, %xmm4
100004638:	66 0f 38 de e8                               	aesdec	%xmm0, %xmm5
10000463d:	66 0f 38 de f0                               	aesdec	%xmm0, %xmm6
100004642:	66 0f 38 de f8                               	aesdec	%xmm0, %xmm7
100004647:	66 44 0f 38 de c0                            	aesdec	%xmm0, %xmm8
10000464d:	66 44 0f 38 de c8                            	aesdec	%xmm0, %xmm9
100004653:	0f 10 41 30                                  	movups	48(%rcx), %xmm0
100004657:	0f 82 c3 00 00 00                            	jb	195
10000465d:	66 0f 38 de d1                               	aesdec	%xmm1, %xmm2
100004662:	66 0f 38 de d9                               	aesdec	%xmm1, %xmm3
100004667:	66 0f 38 de e1                               	aesdec	%xmm1, %xmm4
10000466c:	66 0f 38 de e9                               	aesdec	%xmm1, %xmm5
100004671:	66 0f 38 de f1                               	aesdec	%xmm1, %xmm6
100004676:	66 0f 38 de f9                               	aesdec	%xmm1, %xmm7
10000467b:	66 44 0f 38 de c1                            	aesdec	%xmm1, %xmm8
100004681:	66 44 0f 38 de c9                            	aesdec	%xmm1, %xmm9
100004687:	0f 10 49 40                                  	movups	64(%rcx), %xmm1
10000468b:	90                                           	nop
10000468c:	66 0f 38 de d0                               	aesdec	%xmm0, %xmm2
100004691:	66 0f 38 de d8                               	aesdec	%xmm0, %xmm3
100004696:	66 0f 38 de e0                               	aesdec	%xmm0, %xmm4
10000469b:	66 0f 38 de e8                               	aesdec	%xmm0, %xmm5
1000046a0:	66 0f 38 de f0                               	aesdec	%xmm0, %xmm6
1000046a5:	66 0f 38 de f8                               	aesdec	%xmm0, %xmm7
1000046aa:	66 44 0f 38 de c0                            	aesdec	%xmm0, %xmm8
1000046b0:	66 44 0f 38 de c8                            	aesdec	%xmm0, %xmm9
1000046b6:	0f 10 41 50                                  	movups	80(%rcx), %xmm0
1000046ba:	74 64                                        	je	100
1000046bc:	66 0f 38 de d1                               	aesdec	%xmm1, %xmm2
1000046c1:	66 0f 38 de d9                               	aesdec	%xmm1, %xmm3
1000046c6:	66 0f 38 de e1                               	aesdec	%xmm1, %xmm4
1000046cb:	66 0f 38 de e9                               	aesdec	%xmm1, %xmm5
1000046d0:	66 0f 38 de f1                               	aesdec	%xmm1, %xmm6
1000046d5:	66 0f 38 de f9                               	aesdec	%xmm1, %xmm7
1000046da:	66 44 0f 38 de c1                            	aesdec	%xmm1, %xmm8
1000046e0:	66 44 0f 38 de c9                            	aesdec	%xmm1, %xmm9
1000046e6:	0f 10 49 60                                  	movups	96(%rcx), %xmm1
1000046ea:	90                                           	nop
1000046eb:	66 0f 38 de d0                               	aesdec	%xmm0, %xmm2
1000046f0:	66 0f 38 de d8                               	aesdec	%xmm0, %xmm3
1000046f5:	66 0f 38 de e0                               	aesdec	%xmm0, %xmm4
1000046fa:	66 0f 38 de e8                               	aesdec	%xmm0, %xmm5
1000046ff:	66 0f 38 de f0                               	aesdec	%xmm0, %xmm6
100004704:	66 0f 38 de f8                               	aesdec	%xmm0, %xmm7
100004709:	66 44 0f 38 de c0                            	aesdec	%xmm0, %xmm8
10000470f:	66 44 0f 38 de c8                            	aesdec	%xmm0, %xmm9
100004715:	0f 10 41 70                                  	movups	112(%rcx), %xmm0
100004719:	eb 05                                        	jmp	5
10000471b:	0f 1f 44 00 00                               	nopl	(%rax,%rax)
100004720:	66 0f 38 de d1                               	aesdec	%xmm1, %xmm2
100004725:	66 0f 38 de d9                               	aesdec	%xmm1, %xmm3
10000472a:	66 44 0f ef d0                               	pxor	%xmm0, %xmm10
10000472f:	66 44 0f ef d8                               	pxor	%xmm0, %xmm11
100004734:	66 0f 38 de e1                               	aesdec	%xmm1, %xmm4
100004739:	66 0f 38 de e9                               	aesdec	%xmm1, %xmm5
10000473e:	66 44 0f ef e0                               	pxor	%xmm0, %xmm12
100004743:	66 44 0f ef e8                               	pxor	%xmm0, %xmm13
100004748:	66 0f 38 de f1                               	aesdec	%xmm1, %xmm6
10000474d:	66 0f 38 de f9                               	aesdec	%xmm1, %xmm7
100004752:	66 44 0f ef f0                               	pxor	%xmm0, %xmm14
100004757:	66 44 0f ef f8                               	pxor	%xmm0, %xmm15
10000475c:	66 44 0f 38 de c1                            	aesdec	%xmm1, %xmm8
100004762:	66 44 0f 38 de c9                            	aesdec	%xmm1, %xmm9
100004768:	f3 0f 6f 4f 50                               	movdqu	80(%rdi), %xmm1
10000476d:	66 41 0f 38 df d2                            	aesdeclast	%xmm10, %xmm2
100004773:	f3 44 0f 6f 57 60                            	movdqu	96(%rdi), %xmm10
100004779:	66 0f ef c8                                  	pxor	%xmm0, %xmm1
10000477d:	66 41 0f 38 df db                            	aesdeclast	%xmm11, %xmm3
100004783:	66 44 0f ef d0                               	pxor	%xmm0, %xmm10
100004788:	f3 0f 6f 47 70                               	movdqu	112(%rdi), %xmm0
10000478d:	66 41 0f 38 df e4                            	aesdeclast	%xmm12, %xmm4
100004793:	48 8d bf 80 00 00 00                         	leaq	128(%rdi), %rdi
10000479a:	f3 45 0f 6f 1b                               	movdqu	(%r11), %xmm11
10000479f:	66 41 0f 38 df ed                            	aesdeclast	%xmm13, %xmm5
1000047a5:	66 41 0f 38 df f6                            	aesdeclast	%xmm14, %xmm6
1000047ab:	f3 45 0f 6f 63 10                            	movdqu	16(%r11), %xmm12
1000047b1:	f3 45 0f 6f 6b 20                            	movdqu	32(%r11), %xmm13
1000047b7:	66 41 0f 38 df ff                            	aesdeclast	%xmm15, %xmm7
1000047bd:	66 44 0f 38 df c1                            	aesdeclast	%xmm1, %xmm8
1000047c3:	f3 45 0f 6f 73 30                            	movdqu	48(%r11), %xmm14
1000047c9:	f3 45 0f 6f 7b 40                            	movdqu	64(%r11), %xmm15
1000047cf:	66 45 0f 38 df ca                            	aesdeclast	%xmm10, %xmm9
1000047d5:	66 44 0f 6f d0                               	movdqa	%xmm0, %xmm10
1000047da:	f3 41 0f 6f 4b 50                            	movdqu	80(%r11), %xmm1
1000047e0:	0f 10 41 90                                  	movups	-112(%rcx), %xmm0
1000047e4:	0f 11 16                                     	movups	%xmm2, (%rsi)
1000047e7:	66 41 0f 6f d3                               	movdqa	%xmm11, %xmm2
1000047ec:	0f 11 5e 10                                  	movups	%xmm3, 16(%rsi)
1000047f0:	66 41 0f 6f dc                               	movdqa	%xmm12, %xmm3
1000047f5:	0f 11 66 20                                  	movups	%xmm4, 32(%rsi)
1000047f9:	66 41 0f 6f e5                               	movdqa	%xmm13, %xmm4
1000047fe:	0f 11 6e 30                                  	movups	%xmm5, 48(%rsi)
100004802:	66 41 0f 6f ee                               	movdqa	%xmm14, %xmm5
100004807:	0f 11 76 40                                  	movups	%xmm6, 64(%rsi)
10000480b:	66 41 0f 6f f7                               	movdqa	%xmm15, %xmm6
100004810:	0f 11 7e 50                                  	movups	%xmm7, 80(%rsi)
100004814:	66 0f 6f f9                                  	movdqa	%xmm1, %xmm7
100004818:	44 0f 11 46 60                               	movups	%xmm8, 96(%rsi)
10000481d:	48 8d 76 70                                  	leaq	112(%rsi), %rsi
100004821:	48 81 ea 80 00 00 00                         	subq	$128, %rdx
100004828:	0f 87 62 fc ff ff                            	ja	-926
10000482e:	41 0f 28 d1                                  	movaps	%xmm9, %xmm2
100004832:	48 8d 49 90                                  	leaq	-112(%rcx), %rcx
100004836:	48 83 c2 70                                  	addq	$112, %rdx
10000483a:	0f 8e 10 03 00 00                            	jle	784
100004840:	44 0f 11 0e                                  	movups	%xmm9, (%rsi)
100004844:	48 8d 76 10                                  	leaq	16(%rsi), %rsi
100004848:	48 83 fa 50                                  	cmpq	$80, %rdx
10000484c:	0f 86 7d 01 00 00                            	jbe	381
100004852:	41 0f 28 d3                                  	movaps	%xmm11, %xmm2
100004856:	48 83 fa 60                                  	cmpq	$96, %rdx
10000485a:	77 54                                        	ja	84
10000485c:	44 0f 28 c7                                  	movaps	%xmm7, %xmm8
100004860:	e8 4b d9 ff ff                               	callq	-9909
100004865:	66 41 0f ef d2                               	pxor	%xmm10, %xmm2
10000486a:	45 0f 28 d0                                  	movaps	%xmm8, %xmm10
10000486e:	66 41 0f ef db                               	pxor	%xmm11, %xmm3
100004873:	f3 0f 7f 16                                  	movdqu	%xmm2, (%rsi)
100004877:	66 41 0f ef e4                               	pxor	%xmm12, %xmm4
10000487c:	f3 0f 7f 5e 10                               	movdqu	%xmm3, 16(%rsi)
100004881:	66 41 0f ef ed                               	pxor	%xmm13, %xmm5
100004886:	f3 0f 7f 66 20                               	movdqu	%xmm4, 32(%rsi)
10000488b:	66 41 0f ef f6                               	pxor	%xmm14, %xmm6
100004890:	f3 0f 7f 6e 30                               	movdqu	%xmm5, 48(%rsi)
100004895:	66 41 0f ef ff                               	pxor	%xmm15, %xmm7
10000489a:	f3 0f 7f 76 40                               	movdqu	%xmm6, 64(%rsi)
10000489f:	48 8d 76 50                                  	leaq	80(%rsi), %rsi
1000048a3:	66 0f 6f d7                                  	movdqa	%xmm7, %xmm2
1000048a7:	e9 a4 02 00 00                               	jmp	676
1000048ac:	0f 1f 40 00                                  	nopl	(%rax)
1000048b0:	44 0f 10 47 60                               	movups	96(%rdi), %xmm8
1000048b5:	45 0f 57 c9                                  	xorps	%xmm9, %xmm9
1000048b9:	e8 12 db ff ff                               	callq	-9454
1000048be:	44 0f 10 4f 50                               	movups	80(%rdi), %xmm9
1000048c3:	66 41 0f ef d2                               	pxor	%xmm10, %xmm2
1000048c8:	44 0f 10 57 60                               	movups	96(%rdi), %xmm10
1000048cd:	66 41 0f ef db                               	pxor	%xmm11, %xmm3
1000048d2:	f3 0f 7f 16                                  	movdqu	%xmm2, (%rsi)
1000048d6:	66 41 0f ef e4                               	pxor	%xmm12, %xmm4
1000048db:	f3 0f 7f 5e 10                               	movdqu	%xmm3, 16(%rsi)
1000048e0:	66 41 0f ef ed                               	pxor	%xmm13, %xmm5
1000048e5:	f3 0f 7f 66 20                               	movdqu	%xmm4, 32(%rsi)
1000048ea:	66 41 0f ef f6                               	pxor	%xmm14, %xmm6
1000048ef:	f3 0f 7f 6e 30                               	movdqu	%xmm5, 48(%rsi)
1000048f4:	66 41 0f ef ff                               	pxor	%xmm15, %xmm7
1000048f9:	f3 0f 7f 76 40                               	movdqu	%xmm6, 64(%rsi)
1000048fe:	66 45 0f ef c1                               	pxor	%xmm9, %xmm8
100004903:	f3 0f 7f 7e 50                               	movdqu	%xmm7, 80(%rsi)
100004908:	48 8d 76 60                                  	leaq	96(%rsi), %rsi
10000490c:	66 41 0f 6f d0                               	movdqa	%xmm8, %xmm2
100004911:	e9 3a 02 00 00                               	jmp	570
100004916:	66 2e 0f 1f 84 00 00 00 00 00                	nopw	%cs:(%rax,%rax)
100004920:	0f 11 3e                                     	movups	%xmm7, (%rsi)
100004923:	48 8d 76 10                                  	leaq	16(%rsi), %rsi
100004927:	f3 0f 6f 17                                  	movdqu	(%rdi), %xmm2
10000492b:	f3 0f 6f 5f 10                               	movdqu	16(%rdi), %xmm3
100004930:	66 44 0f 6f da                               	movdqa	%xmm2, %xmm11
100004935:	f3 0f 6f 67 20                               	movdqu	32(%rdi), %xmm4
10000493a:	66 44 0f 6f e3                               	movdqa	%xmm3, %xmm12
10000493f:	f3 0f 6f 6f 30                               	movdqu	48(%rdi), %xmm5
100004944:	66 44 0f 6f ec                               	movdqa	%xmm4, %xmm13
100004949:	f3 0f 6f 77 40                               	movdqu	64(%rdi), %xmm6
10000494e:	66 44 0f 6f f5                               	movdqa	%xmm5, %xmm14
100004953:	f3 0f 6f 7f 50                               	movdqu	80(%rdi), %xmm7
100004958:	66 44 0f 6f fe                               	movdqa	%xmm6, %xmm15
10000495d:	48 8d 7f 60                                  	leaq	96(%rdi), %rdi
100004961:	66 44 0f 6f c7                               	movdqa	%xmm7, %xmm8
100004966:	e8 45 d8 ff ff                               	callq	-10171
10000496b:	66 41 0f ef d2                               	pxor	%xmm10, %xmm2
100004970:	66 45 0f 6f d0                               	movdqa	%xmm8, %xmm10
100004975:	66 41 0f ef db                               	pxor	%xmm11, %xmm3
10000497a:	f3 0f 7f 16                                  	movdqu	%xmm2, (%rsi)
10000497e:	66 41 0f ef e4                               	pxor	%xmm12, %xmm4
100004983:	f3 0f 7f 5e 10                               	movdqu	%xmm3, 16(%rsi)
100004988:	66 41 0f ef ed                               	pxor	%xmm13, %xmm5
10000498d:	f3 0f 7f 66 20                               	movdqu	%xmm4, 32(%rsi)
100004992:	66 41 0f ef f6                               	pxor	%xmm14, %xmm6
100004997:	4c 89 d9                                     	movq	%r11, %rcx
10000499a:	f3 0f 7f 6e 30                               	movdqu	%xmm5, 48(%rsi)
10000499f:	66 41 0f ef ff                               	pxor	%xmm15, %xmm7
1000049a4:	44 89 d0                                     	movl	%r10d, %eax
1000049a7:	f3 0f 7f 76 40                               	movdqu	%xmm6, 64(%rsi)
1000049ac:	48 8d 76 50                                  	leaq	80(%rsi), %rsi
1000049b0:	48 83 ea 60                                  	subq	$96, %rdx
1000049b4:	0f 87 66 ff ff ff                            	ja	-154
1000049ba:	66 0f 6f d7                                  	movdqa	%xmm7, %xmm2
1000049be:	48 83 c2 50                                  	addq	$80, %rdx
1000049c2:	0f 8e 88 01 00 00                            	jle	392
1000049c8:	0f 11 3e                                     	movups	%xmm7, (%rsi)
1000049cb:	48 8d 76 10                                  	leaq	16(%rsi), %rsi
1000049cf:	0f 10 17                                     	movups	(%rdi), %xmm2
1000049d2:	48 83 ea 10                                  	subq	$16, %rdx
1000049d6:	0f 86 94 00 00 00                            	jbe	148
1000049dc:	0f 10 5f 10                                  	movups	16(%rdi), %xmm3
1000049e0:	44 0f 28 da                                  	movaps	%xmm2, %xmm11
1000049e4:	48 83 ea 10                                  	subq	$16, %rdx
1000049e8:	0f 86 c2 00 00 00                            	jbe	194
1000049ee:	0f 10 67 20                                  	movups	32(%rdi), %xmm4
1000049f2:	44 0f 28 e3                                  	movaps	%xmm3, %xmm12
1000049f6:	48 83 ea 10                                  	subq	$16, %rdx
1000049fa:	0f 86 e0 00 00 00                            	jbe	224
100004a00:	0f 10 6f 30                                  	movups	48(%rdi), %xmm5
100004a04:	44 0f 28 ec                                  	movaps	%xmm4, %xmm13
100004a08:	48 83 ea 10                                  	subq	$16, %rdx
100004a0c:	0f 86 fe 00 00 00                            	jbe	254
100004a12:	0f 10 77 40                                  	movups	64(%rdi), %xmm6
100004a16:	44 0f 28 f5                                  	movaps	%xmm5, %xmm14
100004a1a:	44 0f 28 fe                                  	movaps	%xmm6, %xmm15
100004a1e:	0f 57 ff                                     	xorps	%xmm7, %xmm7
100004a21:	e8 8a d7 ff ff                               	callq	-10358
100004a26:	66 41 0f ef d2                               	pxor	%xmm10, %xmm2
100004a2b:	45 0f 28 d7                                  	movaps	%xmm15, %xmm10
100004a2f:	66 41 0f ef db                               	pxor	%xmm11, %xmm3
100004a34:	f3 0f 7f 16                                  	movdqu	%xmm2, (%rsi)
100004a38:	66 41 0f ef e4                               	pxor	%xmm12, %xmm4
100004a3d:	f3 0f 7f 5e 10                               	movdqu	%xmm3, 16(%rsi)
100004a42:	66 41 0f ef ed                               	pxor	%xmm13, %xmm5
100004a47:	f3 0f 7f 66 20                               	movdqu	%xmm4, 32(%rsi)
100004a4c:	66 41 0f ef f6                               	pxor	%xmm14, %xmm6
100004a51:	f3 0f 7f 6e 30                               	movdqu	%xmm5, 48(%rsi)
100004a56:	48 8d 76 40                                  	leaq	64(%rsi), %rsi
100004a5a:	66 0f 6f d6                                  	movdqa	%xmm6, %xmm2
100004a5e:	48 83 ea 10                                  	subq	$16, %rdx
100004a62:	e9 e9 00 00 00                               	jmp	233
100004a67:	66 0f 1f 84 00 00 00 00 00                   	nopw	(%rax,%rax)
100004a70:	44 0f 28 da                                  	movaps	%xmm2, %xmm11
100004a74:	0f 10 01                                     	movups	(%rcx), %xmm0
100004a77:	0f 10 49 10                                  	movups	16(%rcx), %xmm1
100004a7b:	48 8d 49 20                                  	leaq	32(%rcx), %rcx
100004a7f:	0f 57 d0                                     	xorps	%xmm0, %xmm2
100004a82:	66 0f 38 de d1                               	aesdec	%xmm1, %xmm2
100004a87:	ff c8                                        	decl	%eax
100004a89:	0f 10 09                                     	movups	(%rcx), %xmm1
100004a8c:	48 8d 49 10                                  	leaq	16(%rcx), %rcx
100004a90:	75 f0                                        	jne	-16
100004a92:	66 0f 38 df d1                               	aesdeclast	%xmm1, %xmm2
100004a97:	41 0f 57 d2                                  	xorps	%xmm10, %xmm2
100004a9b:	45 0f 28 d3                                  	movaps	%xmm11, %xmm10
100004a9f:	e9 ac 00 00 00                               	jmp	172
100004aa4:	66 66 66 2e 0f 1f 84 00 00 00 00 00          	nopw	%cs:(%rax,%rax)
100004ab0:	44 0f 28 e3                                  	movaps	%xmm3, %xmm12
100004ab4:	e8 a7 d3 ff ff                               	callq	-11353
100004ab9:	66 41 0f ef d2                               	pxor	%xmm10, %xmm2
100004abe:	45 0f 28 d4                                  	movaps	%xmm12, %xmm10
100004ac2:	66 41 0f ef db                               	pxor	%xmm11, %xmm3
100004ac7:	f3 0f 7f 16                                  	movdqu	%xmm2, (%rsi)
100004acb:	66 0f 6f d3                                  	movdqa	%xmm3, %xmm2
100004acf:	48 8d 76 10                                  	leaq	16(%rsi), %rsi
100004ad3:	eb 7b                                        	jmp	123
100004ad5:	66 66 2e 0f 1f 84 00 00 00 00 00             	nopw	%cs:(%rax,%rax)
100004ae0:	44 0f 28 ec                                  	movaps	%xmm4, %xmm13
100004ae4:	e8 47 d4 ff ff                               	callq	-11193
100004ae9:	66 41 0f ef d2                               	pxor	%xmm10, %xmm2
100004aee:	45 0f 28 d5                                  	movaps	%xmm13, %xmm10
100004af2:	66 41 0f ef db                               	pxor	%xmm11, %xmm3
100004af7:	f3 0f 7f 16                                  	movdqu	%xmm2, (%rsi)
100004afb:	66 41 0f ef e4                               	pxor	%xmm12, %xmm4
100004b00:	f3 0f 7f 5e 10                               	movdqu	%xmm3, 16(%rsi)
100004b05:	66 0f 6f d4                                  	movdqa	%xmm4, %xmm2
100004b09:	48 8d 76 20                                  	leaq	32(%rsi), %rsi
100004b0d:	eb 41                                        	jmp	65
100004b0f:	90                                           	nop
100004b10:	44 0f 28 f5                                  	movaps	%xmm5, %xmm14
100004b14:	e8 17 d5 ff ff                               	callq	-10985
100004b19:	66 41 0f ef d2                               	pxor	%xmm10, %xmm2
100004b1e:	45 0f 28 d6                                  	movaps	%xmm14, %xmm10
100004b22:	66 41 0f ef db                               	pxor	%xmm11, %xmm3
100004b27:	f3 0f 7f 16                                  	movdqu	%xmm2, (%rsi)
100004b2b:	66 41 0f ef e4                               	pxor	%xmm12, %xmm4
100004b30:	f3 0f 7f 5e 10                               	movdqu	%xmm3, 16(%rsi)
100004b35:	66 41 0f ef ed                               	pxor	%xmm13, %xmm5
100004b3a:	f3 0f 7f 66 20                               	movdqu	%xmm4, 32(%rsi)
100004b3f:	66 0f 6f d5                                  	movdqa	%xmm5, %xmm2
100004b43:	48 8d 76 30                                  	leaq	48(%rsi), %rsi
100004b47:	eb 07                                        	jmp	7
100004b49:	0f 1f 80 00 00 00 00                         	nopl	(%rax)
100004b50:	45 0f 11 10                                  	movups	%xmm10, (%r8)
100004b54:	48 83 e2 0f                                  	andq	$15, %rdx
100004b58:	75 06                                        	jne	6
100004b5a:	0f 11 16                                     	movups	%xmm2, (%rsi)
100004b5d:	eb 1a                                        	jmp	26
100004b5f:	90                                           	nop
100004b60:	0f 29 14 24                                  	movaps	%xmm2, (%rsp)
100004b64:	48 c7 c1 10 00 00 00                         	movq	$16, %rcx
100004b6b:	48 89 f7                                     	movq	%rsi, %rdi
100004b6e:	48 29 d1                                     	subq	%rdx, %rcx
100004b71:	48 8d 34 24                                  	leaq	(%rsp), %rsi
100004b75:	f3                                           	rep
100004b76:	a4                                           	movsb	(%rsi), %es:(%rdi)
100004b77:	66 90                                        	nop
100004b79:	48 8d 65 00                                  	leaq	(%rbp), %rsp
100004b7d:	5d                                           	popq	%rbp
100004b7e:	f3                                           	rep
100004b7f:	c3                                           	retq

_aesni_set_decrypt_key:
100004b80:	48 83 ec 08                                  	subq	$8, %rsp
100004b84:	e8 57 00 00 00                               	callq	87
100004b89:	c1 e6 04                                     	shll	$4, %esi
100004b8c:	85 c0                                        	testl	%eax, %eax
100004b8e:	75 49                                        	jne	73
100004b90:	48 8d 7c 32 10                               	leaq	16(%rdx,%rsi), %rdi
100004b95:	0f 10 02                                     	movups	(%rdx), %xmm0
100004b98:	0f 10 0f                                     	movups	(%rdi), %xmm1
100004b9b:	0f 11 07                                     	movups	%xmm0, (%rdi)
100004b9e:	0f 11 0a                                     	movups	%xmm1, (%rdx)
100004ba1:	48 8d 52 10                                  	leaq	16(%rdx), %rdx
100004ba5:	48 8d 7f f0                                  	leaq	-16(%rdi), %rdi
100004ba9:	0f 10 02                                     	movups	(%rdx), %xmm0
100004bac:	0f 10 0f                                     	movups	(%rdi), %xmm1
100004baf:	66 0f 38 db c0                               	aesimc	%xmm0, %xmm0
100004bb4:	66 0f 38 db c9                               	aesimc	%xmm1, %xmm1
100004bb9:	48 8d 52 10                                  	leaq	16(%rdx), %rdx
100004bbd:	48 8d 7f f0                                  	leaq	-16(%rdi), %rdi
100004bc1:	0f 11 47 10                                  	movups	%xmm0, 16(%rdi)
100004bc5:	0f 11 4a f0                                  	movups	%xmm1, -16(%rdx)
100004bc9:	48 39 d7                                     	cmpq	%rdx, %rdi
100004bcc:	77 db                                        	ja	-37
100004bce:	0f 10 02                                     	movups	(%rdx), %xmm0
100004bd1:	66 0f 38 db c0                               	aesimc	%xmm0, %xmm0
100004bd6:	0f 11 07                                     	movups	%xmm0, (%rdi)
100004bd9:	48 83 c4 08                                  	addq	$8, %rsp
100004bdd:	f3                                           	rep
100004bde:	c3                                           	retq
100004bdf:	90                                           	nop

_aesni_set_encrypt_key:
100004be0:	c5 f8 77                                     	vzeroupper
100004be3:	48 83 ec 08                                  	subq	$8, %rsp
100004be7:	48 c7 c0 ff ff ff ff                         	movq	$-1, %rax
100004bee:	0f 10 07                                     	movups	(%rdi), %xmm0
100004bf1:	0f 57 e4                                     	xorps	%xmm4, %xmm4
100004bf4:	48 8d 42 10                                  	leaq	16(%rdx), %rax
100004bf8:	0f 1f 84 00 00 00 00 00                      	nopl	(%rax,%rax)
100004c00:	0f 10 57 10                                  	movups	16(%rdi), %xmm2
100004c04:	be 0d 00 00 00                               	movl	$13, %esi
100004c09:	48 8d 40 10                                  	leaq	16(%rax), %rax
100004c0d:	0f 11 02                                     	movups	%xmm0, (%rdx)
100004c10:	0f 11 52 10                                  	movups	%xmm2, 16(%rdx)
100004c14:	66 0f 3a df ca 01                            	aeskeygenassist	$1, %xmm2, %xmm1
100004c1a:	e8 28 01 00 00                               	callq	296
100004c1f:	66 0f 3a df c8 01                            	aeskeygenassist	$1, %xmm0, %xmm1
100004c25:	e8 36 01 00 00                               	callq	310
100004c2a:	66 0f 3a df ca 02                            	aeskeygenassist	$2, %xmm2, %xmm1
100004c30:	e8 0b 01 00 00                               	callq	267
100004c35:	66 0f 3a df c8 02                            	aeskeygenassist	$2, %xmm0, %xmm1
100004c3b:	e8 20 01 00 00                               	callq	288
100004c40:	66 0f 3a df ca 04                            	aeskeygenassist	$4, %xmm2, %xmm1
100004c46:	e8 f5 00 00 00                               	callq	245
100004c4b:	66 0f 3a df c8 04                            	aeskeygenassist	$4, %xmm0, %xmm1
100004c51:	e8 0a 01 00 00                               	callq	266
100004c56:	66 0f 3a df ca 08                            	aeskeygenassist	$8, %xmm2, %xmm1
100004c5c:	e8 df 00 00 00                               	callq	223
100004c61:	66 0f 3a df c8 08                            	aeskeygenassist	$8, %xmm0, %xmm1
100004c67:	e8 f4 00 00 00                               	callq	244
100004c6c:	66 0f 3a df ca 10                            	aeskeygenassist	$16, %xmm2, %xmm1
100004c72:	e8 c9 00 00 00                               	callq	201
100004c77:	66 0f 3a df c8 10                            	aeskeygenassist	$16, %xmm0, %xmm1
100004c7d:	e8 de 00 00 00                               	callq	222
100004c82:	66 0f 3a df ca 20                            	aeskeygenassist	$32, %xmm2, %xmm1
100004c88:	e8 b3 00 00 00                               	callq	179
100004c8d:	66 0f 3a df c8 20                            	aeskeygenassist	$32, %xmm0, %xmm1
100004c93:	e8 c8 00 00 00                               	callq	200
100004c98:	66 0f 3a df ca 40                            	aeskeygenassist	$64, %xmm2, %xmm1
100004c9e:	e8 9d 00 00 00                               	callq	157
100004ca3:	0f 11 00                                     	movups	%xmm0, (%rax)
100004ca6:	89 70 10                                     	movl	%esi, 16(%rax)
100004ca9:	48 31 c0                                     	xorq	%rax, %rax
100004cac:	eb 09                                        	jmp	9
100004cae:	66 90                                        	nop
100004cb0:	48 c7 c0 fe ff ff ff                         	movq	$-2, %rax
100004cb7:	48 83 c4 08                                  	addq	$8, %rsp
100004cbb:	f3                                           	rep
100004cbc:	c3                                           	retq
100004cbd:	0f 1f 00                                     	nopl	(%rax)
100004cc0:	0f 11 00                                     	movups	%xmm0, (%rax)
100004cc3:	48 8d 40 10                                  	leaq	16(%rax), %rax
100004cc7:	0f c6 e0 10                                  	shufps	$16, %xmm0, %xmm4
100004ccb:	0f 57 c4                                     	xorps	%xmm4, %xmm0
100004cce:	0f c6 e0 8c                                  	shufps	$-116, %xmm0, %xmm4
100004cd2:	0f 57 c4                                     	xorps	%xmm4, %xmm0
100004cd5:	0f c6 c9 ff                                  	shufps	$-1, %xmm1, %xmm1
100004cd9:	0f 57 c1                                     	xorps	%xmm1, %xmm0
100004cdc:	f3                                           	rep
100004cdd:	c3                                           	retq
100004cde:	66 90                                        	nop
100004ce0:	0f 11 00                                     	movups	%xmm0, (%rax)
100004ce3:	48 8d 40 10                                  	leaq	16(%rax), %rax
100004ce7:	0f 28 ea                                     	movaps	%xmm2, %xmm5
100004cea:	0f c6 e0 10                                  	shufps	$16, %xmm0, %xmm4
100004cee:	66 0f 6f da                                  	movdqa	%xmm2, %xmm3
100004cf2:	0f 57 c4                                     	xorps	%xmm4, %xmm0
100004cf5:	0f c6 e0 8c                                  	shufps	$-116, %xmm0, %xmm4
100004cf9:	66 0f 73 fb 04                               	pslldq	$4, %xmm3
100004cfe:	0f 57 c4                                     	xorps	%xmm4, %xmm0
100004d01:	66 0f 70 c9 55                               	pshufd	$85, %xmm1, %xmm1
100004d06:	66 0f ef d3                                  	pxor	%xmm3, %xmm2
100004d0a:	66 0f ef c1                                  	pxor	%xmm1, %xmm0
100004d0e:	66 0f 70 d8 ff                               	pshufd	$-1, %xmm0, %xmm3
100004d13:	66 0f ef d3                                  	pxor	%xmm3, %xmm2
100004d17:	f3                                           	rep
100004d18:	c3                                           	retq
100004d19:	0f 1f 80 00 00 00 00                         	nopl	(%rax)
100004d20:	0f 28 d8                                     	movaps	%xmm0, %xmm3
100004d23:	0f c6 e8 44                                  	shufps	$68, %xmm0, %xmm5
100004d27:	0f 11 28                                     	movups	%xmm5, (%rax)
100004d2a:	0f c6 da 4e                                  	shufps	$78, %xmm2, %xmm3
100004d2e:	0f 11 58 10                                  	movups	%xmm3, 16(%rax)
100004d32:	48 8d 40 20                                  	leaq	32(%rax), %rax
100004d36:	eb b2                                        	jmp	-78
100004d38:	0f 1f 84 00 00 00 00 00                      	nopl	(%rax,%rax)
100004d40:	0f 11 10                                     	movups	%xmm2, (%rax)
100004d43:	48 8d 40 10                                  	leaq	16(%rax), %rax
100004d47:	0f c6 e0 10                                  	shufps	$16, %xmm0, %xmm4
100004d4b:	0f 57 c4                                     	xorps	%xmm4, %xmm0
100004d4e:	0f c6 e0 8c                                  	shufps	$-116, %xmm0, %xmm4
100004d52:	0f 57 c4                                     	xorps	%xmm4, %xmm0
100004d55:	0f c6 c9 ff                                  	shufps	$-1, %xmm1, %xmm1
100004d59:	0f 57 c1                                     	xorps	%xmm1, %xmm0
100004d5c:	f3                                           	rep
100004d5d:	c3                                           	retq
100004d5e:	66 90                                        	nop
100004d60:	0f 11 00                                     	movups	%xmm0, (%rax)
100004d63:	48 8d 40 10                                  	leaq	16(%rax), %rax
100004d67:	0f c6 e2 10                                  	shufps	$16, %xmm2, %xmm4
100004d6b:	0f 57 d4                                     	xorps	%xmm4, %xmm2
100004d6e:	0f c6 e2 8c                                  	shufps	$-116, %xmm2, %xmm4
100004d72:	0f 57 d4                                     	xorps	%xmm4, %xmm2
100004d75:	0f c6 c9 aa                                  	shufps	$-86, %xmm1, %xmm1
100004d79:	0f 57 d1                                     	xorps	%xmm1, %xmm2
100004d7c:	f3                                           	rep
100004d7d:	c3                                           	retq
100004d7e:	66 90                                        	nop
100004d80:	0f 0e                                        	femms
100004d82:	0d 0c 0b 0a 09                               	orl	$151653132, %eax
100004d87:	08 07                                        	orb	%al, (%rdi)
100004d8a:	05 04 03 02 01                               	addl	$16909060, %eax
100004d8f:	00 06                                        	addb	%al, (%rsi)
100004d91:	00 00                                        	addb	%al, (%rax)
100004d93:	00 06                                        	addb	%al, (%rsi)
100004d95:	00 00                                        	addb	%al, (%rax)
100004d97:	00 06                                        	addb	%al, (%rsi)
100004d99:	00 00                                        	addb	%al, (%rax)
100004d9b:	00 00                                        	addb	%al, (%rax)
100004d9d:	00 00                                        	addb	%al, (%rax)
100004d9f:	00 01                                        	addb	%al, (%rcx)
100004da1:	00 00                                        	addb	%al, (%rax)
100004da3:	00 00                                        	addb	%al, (%rax)
100004da5:	00 00                                        	addb	%al, (%rax)
100004da7:	00 00                                        	addb	%al, (%rax)
100004da9:	00 00                                        	addb	%al, (%rax)
100004dab:	00 00                                        	addb	%al, (%rax)
100004dad:	00 00                                        	addb	%al, (%rax)
100004daf:	00 87 00 00 00 00                            	addb	%al, (%rdi)
100004db5:	00 00                                        	addb	%al, (%rax)
100004db7:	00 01                                        	addb	%al, (%rcx)
100004db9:	00 00                                        	addb	%al, (%rax)
100004dbb:	00 00                                        	addb	%al, (%rax)
100004dbd:	00 00                                        	addb	%al, (%rax)
100004dbf:	00 00                                        	addb	%al, (%rax)
100004dc1:	00 00                                        	addb	%al, (%rax)
100004dc3:	00 00                                        	addb	%al, (%rax)
100004dc5:	00 00                                        	addb	%al, (%rax)
100004dc7:	00 00                                        	addb	%al, (%rax)
100004dc9:	00 00                                        	addb	%al, (%rax)
100004dcb:	00 00                                        	addb	%al, (%rax)
100004dcd:	00 00                                        	addb	%al, (%rax)
100004dcf:	01 41 45                                     	addl	%eax, 69(%rcx)
100004dd2:	53                                           	pushq	%rbx
100004dd3:	20 66 6f                                     	andb	%ah, 111(%rsi)
100004dd6:	72 20                                        	jb	32
100004dd8:	49 6e                                        	outsb	(%rsi), %dx
100004dda:	74 65                                        	je	101
100004ddc:	6c                                           	insb	%dx, %es:(%rdi)
100004ddd:	20 41 45                                     	andb	%al, 69(%rcx)
100004de0:	53                                           	pushq	%rbx
100004de1:	2d 4e 49 2c 20                               	subl	$539773262, %eax
100004de6:	43 52                                        	pushq	%r10
100004de8:	59                                           	popq	%rcx
100004de9:	50                                           	pushq	%rax
100004dea:	54                                           	pushq	%rsp
100004dee:	4d 53                                        	pushq	%r11
100004df0:	20 62 79                                     	andb	%ah, 121(%rdx)
100004df3:	20 3c 61                                     	andb	%bh, (%rcx)
100004df6:	70 70                                        	jo	112
100004df8:	72 6f                                        	jb	111
100004dfa:	40 6f                                        	outsl	(%rsi), %dx
100004dfc:	70 65                                        	jo	101
100004dfe:	6e                                           	outsb	(%rsi), %dx
100004dff:	73 73                                        	jae	115
100004e01:	6c                                           	insb	%dx, %es:(%rdi)
100004e02:	2e 6f                                        	outsl	%cs:(%rsi), %dx
100004e04:	72 67                                        	jb	103
100004e06:	3e 00 66 66                                  	addb	%ah, %ds:102(%rsi)
100004e0a:	66 66 66 66 2e 0f 1f 84 00 00 00 00 00       	nopw	%cs:(%rax,%rax)
100004e17:	66 66 66 66 66 66 2e 0f 1f 84 00 00 00 00 00 	nopw	%cs:(%rax,%rax)
100004e26:	66 66 66 66 66 66 2e 0f 1f 84 00 00 00 00 00 	nopw	%cs:(%rax,%rax)
100004e35:	66 66 2e 0f 1f 84 00 00 00 00 00             	nopw	%cs:(%rax,%rax)
Disassembly of section __TEXT,__stubs:
__stubs:
100004e40:	ff 25 d2 01 00 00                            	jmpq	*466(%rip)
100004e46:	ff 25 d4 01 00 00                            	jmpq	*468(%rip)
100004e4c:	ff 25 d6 01 00 00                            	jmpq	*470(%rip)
100004e52:	ff 25 d8 01 00 00                            	jmpq	*472(%rip)
100004e58:	ff 25 da 01 00 00                            	jmpq	*474(%rip)
100004e5e:	ff 25 dc 01 00 00                            	jmpq	*476(%rip)
100004e64:	ff 25 de 01 00 00                            	jmpq	*478(%rip)
Disassembly of section __TEXT,__stub_helper:
__stub_helper:
100004e6c:	4c 8d 1d 95 01 00 00                         	leaq	405(%rip), %r11
100004e73:	41 53                                        	pushq	%r11
100004e75:	ff 25 85 01 00 00                            	jmpq	*389(%rip)
100004e7b:	90                                           	nop
100004e7c:	68 00 00 00 00                               	pushq	$0
100004e81:	e9 e6 ff ff ff                               	jmp	-26
100004e86:	68 18 00 00 00                               	pushq	$24
100004e8b:	e9 dc ff ff ff                               	jmp	-36
100004e90:	68 26 00 00 00                               	pushq	$38
100004e95:	e9 d2 ff ff ff                               	jmp	-46
100004e9a:	68 34 00 00 00                               	pushq	$52
100004e9f:	e9 c8 ff ff ff                               	jmp	-56
100004ea4:	68 42 00 00 00                               	pushq	$66
100004ea9:	e9 be ff ff ff                               	jmp	-66
100004eae:	68 50 00 00 00                               	pushq	$80
100004eb3:	e9 b4 ff ff ff                               	jmp	-76
100004eb8:	68 5e 00 00 00                               	pushq	$94
100004ebd:	e9 aa ff ff ff                               	jmp	-86
